
avr_project.elf:     file format elf32-avr

Sections:
Idx Name          Size      VMA       LMA       File off  Algn
  0 .data         00000028  00800100  00001384  00001418  2**0
                  CONTENTS, ALLOC, LOAD, DATA
  1 .text         00001384  00000000  00000000  00000094  2**1
                  CONTENTS, ALLOC, LOAD, READONLY, CODE
  2 .bss          0000002e  00800128  00800128  00001440  2**0
                  ALLOC
  3 .comment      0000005c  00000000  00000000  00001440  2**0
                  CONTENTS, READONLY
  4 .note.gnu.avr.deviceinfo 00000040  00000000  00000000  0000149c  2**2
                  CONTENTS, READONLY
  5 .debug_aranges 000001a0  00000000  00000000  000014dc  2**0
                  CONTENTS, READONLY, DEBUGGING
  6 .debug_info   00001fcc  00000000  00000000  0000167c  2**0
                  CONTENTS, READONLY, DEBUGGING
  7 .debug_abbrev 00000f28  00000000  00000000  00003648  2**0
                  CONTENTS, READONLY, DEBUGGING
  8 .debug_line   000010f6  00000000  00000000  00004570  2**0
                  CONTENTS, READONLY, DEBUGGING
  9 .debug_frame  000003b4  00000000  00000000  00005668  2**2
                  CONTENTS, READONLY, DEBUGGING
 10 .debug_str    0000078a  00000000  00000000  00005a1c  2**0
                  CONTENTS, READONLY, DEBUGGING
 11 .debug_loc    00001342  00000000  00000000  000061a6  2**0
                  CONTENTS, READONLY, DEBUGGING
 12 .debug_ranges 00000198  00000000  00000000  000074e8  2**0
                  CONTENTS, READONLY, DEBUGGING

Disassembly of section .text:

00000000 <__vectors>:
       0:	45 c0       	rjmp	.+138    	; 0x8c <__ctors_end>
       2:	00 00       	nop
       4:	61 c0       	rjmp	.+194    	; 0xc8 <__bad_interrupt>
       6:	00 00       	nop
       8:	5f c0       	rjmp	.+190    	; 0xc8 <__bad_interrupt>
       a:	00 00       	nop
       c:	5d c0       	rjmp	.+186    	; 0xc8 <__bad_interrupt>
       e:	00 00       	nop
      10:	5b c0       	rjmp	.+182    	; 0xc8 <__bad_interrupt>
      12:	00 00       	nop
      14:	59 c0       	rjmp	.+178    	; 0xc8 <__bad_interrupt>
      16:	00 00       	nop
      18:	57 c0       	rjmp	.+174    	; 0xc8 <__bad_interrupt>
      1a:	00 00       	nop
      1c:	55 c0       	rjmp	.+170    	; 0xc8 <__bad_interrupt>
      1e:	00 00       	nop
      20:	53 c0       	rjmp	.+166    	; 0xc8 <__bad_interrupt>
      22:	00 00       	nop
      24:	51 c0       	rjmp	.+162    	; 0xc8 <__bad_interrupt>
      26:	00 00       	nop
      28:	4f c0       	rjmp	.+158    	; 0xc8 <__bad_interrupt>
      2a:	00 00       	nop
      2c:	4d c0       	rjmp	.+154    	; 0xc8 <__bad_interrupt>
      2e:	00 00       	nop
      30:	4b c0       	rjmp	.+150    	; 0xc8 <__bad_interrupt>
      32:	00 00       	nop
      34:	49 c0       	rjmp	.+146    	; 0xc8 <__bad_interrupt>
      36:	00 00       	nop
      38:	47 c0       	rjmp	.+142    	; 0xc8 <__bad_interrupt>
      3a:	00 00       	nop
      3c:	45 c0       	rjmp	.+138    	; 0xc8 <__bad_interrupt>
      3e:	00 00       	nop
      40:	43 c0       	rjmp	.+134    	; 0xc8 <__bad_interrupt>
      42:	00 00       	nop
      44:	41 c0       	rjmp	.+130    	; 0xc8 <__bad_interrupt>
      46:	00 00       	nop
      48:	3f c0       	rjmp	.+126    	; 0xc8 <__bad_interrupt>
      4a:	00 00       	nop
      4c:	3d c0       	rjmp	.+122    	; 0xc8 <__bad_interrupt>
      4e:	00 00       	nop
      50:	3b c0       	rjmp	.+118    	; 0xc8 <__bad_interrupt>
      52:	00 00       	nop
      54:	39 c0       	rjmp	.+114    	; 0xc8 <__bad_interrupt>
      56:	00 00       	nop
      58:	37 c0       	rjmp	.+110    	; 0xc8 <__bad_interrupt>
      5a:	00 00       	nop
      5c:	35 c0       	rjmp	.+106    	; 0xc8 <__bad_interrupt>
      5e:	00 00       	nop
      60:	33 c0       	rjmp	.+102    	; 0xc8 <__bad_interrupt>
      62:	00 00       	nop
      64:	31 c0       	rjmp	.+98     	; 0xc8 <__bad_interrupt>
      66:	00 00       	nop
      68:	2f c0       	rjmp	.+94     	; 0xc8 <__bad_interrupt>
      6a:	00 00       	nop
      6c:	2d c0       	rjmp	.+90     	; 0xc8 <__bad_interrupt>
      6e:	00 00       	nop
      70:	2b c0       	rjmp	.+86     	; 0xc8 <__bad_interrupt>
      72:	00 00       	nop
      74:	29 c0       	rjmp	.+82     	; 0xc8 <__bad_interrupt>
      76:	00 00       	nop
      78:	2d c2       	rjmp	.+1114   	; 0x4d4 <__vector_30>
      7a:	00 00       	nop
      7c:	25 c0       	rjmp	.+74     	; 0xc8 <__bad_interrupt>
      7e:	00 00       	nop
      80:	23 c0       	rjmp	.+70     	; 0xc8 <__bad_interrupt>
      82:	00 00       	nop
      84:	21 c0       	rjmp	.+66     	; 0xc8 <__bad_interrupt>
      86:	00 00       	nop
      88:	1f c0       	rjmp	.+62     	; 0xc8 <__bad_interrupt>
	...

0000008c <__ctors_end>:
      8c:	11 24       	eor	r1, r1
      8e:	1f be       	out	0x3f, r1	; 63
      90:	cf ef       	ldi	r28, 0xFF	; 255
      92:	d0 e1       	ldi	r29, 0x10	; 16
      94:	de bf       	out	0x3e, r29	; 62
      96:	cd bf       	out	0x3d, r28	; 61

00000098 <__do_copy_data>:
      98:	11 e0       	ldi	r17, 0x01	; 1
      9a:	a0 e0       	ldi	r26, 0x00	; 0
      9c:	b1 e0       	ldi	r27, 0x01	; 1
      9e:	e4 e8       	ldi	r30, 0x84	; 132
      a0:	f3 e1       	ldi	r31, 0x13	; 19
      a2:	00 e0       	ldi	r16, 0x00	; 0
      a4:	0b bf       	out	0x3b, r16	; 59
      a6:	02 c0       	rjmp	.+4      	; 0xac <__do_copy_data+0x14>
      a8:	07 90       	elpm	r0, Z+
      aa:	0d 92       	st	X+, r0
      ac:	a8 32       	cpi	r26, 0x28	; 40
      ae:	b1 07       	cpc	r27, r17
      b0:	d9 f7       	brne	.-10     	; 0xa8 <__do_copy_data+0x10>

000000b2 <__do_clear_bss>:
      b2:	21 e0       	ldi	r18, 0x01	; 1
      b4:	a8 e2       	ldi	r26, 0x28	; 40
      b6:	b1 e0       	ldi	r27, 0x01	; 1
      b8:	01 c0       	rjmp	.+2      	; 0xbc <.do_clear_bss_start>

000000ba <.do_clear_bss_loop>:
      ba:	1d 92       	st	X+, r1

000000bc <.do_clear_bss_start>:
      bc:	a6 35       	cpi	r26, 0x56	; 86
      be:	b2 07       	cpc	r27, r18
      c0:	e1 f7       	brne	.-8      	; 0xba <.do_clear_bss_loop>
      c2:	2c d3       	rcall	.+1624   	; 0x71c <main>
      c4:	0c 94 c0 09 	jmp	0x1380	; 0x1380 <_exit>

000000c8 <__bad_interrupt>:
      c8:	9b cf       	rjmp	.-202    	; 0x0 <__vectors>

000000ca <I2C_TransCheck_ACK>:
#define I2C_SDA	PD1

unsigned char I2C_TransCheck_ACK(unsigned char Stat)
{
	unsigned int ExtDev_ErrCnt = 0;
	while (!(TWCR & (1<<TWINT)));         // ∆–≈∂ ¿¸º€ øœ∑·µ… ∂ß ±Ó¡ˆ wait
      ca:	90 91 74 00 	lds	r25, 0x0074	; 0x800074 <__TEXT_REGION_LENGTH__+0x7e0074>
      ce:	99 23       	and	r25, r25
      d0:	e4 f7       	brge	.-8      	; 0xca <I2C_TransCheck_ACK>
	{
		if(ExtDev_ErrCnt++>ExtDev_ERR_MAX_CNT){ return 1; }
	}
	if ((TWSR & 0xf8) != Stat) return 1;  // ¿¸º€ ∞ÀªÁ(ACK) : errorΩ√ 1 π›»Ø
      d2:	90 91 71 00 	lds	r25, 0x0071	; 0x800071 <__TEXT_REGION_LENGTH__+0x7e0071>
      d6:	98 7f       	andi	r25, 0xF8	; 248
      d8:	98 17       	cp	r25, r24
      da:	11 f0       	breq	.+4      	; 0xe0 <I2C_TransCheck_ACK+0x16>
      dc:	81 e0       	ldi	r24, 0x01	; 1
      de:	08 95       	ret
	else return 0;
      e0:	80 e0       	ldi	r24, 0x00	; 0
}
      e2:	08 95       	ret

000000e4 <I2C_Init>:

void I2C_Init(void)
{
	DDRD |= (1<< I2C_SCL)|(1<< I2C_SDA);
      e4:	81 b3       	in	r24, 0x11	; 17
      e6:	83 60       	ori	r24, 0x03	; 3
      e8:	81 bb       	out	0x11, r24	; 17
	TWBR=32; //SCL frequency is 200kHz
      ea:	80 e2       	ldi	r24, 0x20	; 32
      ec:	80 93 70 00 	sts	0x0070, r24	; 0x800070 <__TEXT_REGION_LENGTH__+0x7e0070>
	TWSR=0x00; //set presca1er bits to zero
      f0:	10 92 71 00 	sts	0x0071, r1	; 0x800071 <__TEXT_REGION_LENGTH__+0x7e0071>
      f4:	08 95       	ret

000000f6 <I2C_Start>:
}

unsigned char I2C_Start(void)
{
	TWCR |= (1<<TWINT) | (1<<TWEN) | (1<<TWSTA);
      f6:	e4 e7       	ldi	r30, 0x74	; 116
      f8:	f0 e0       	ldi	r31, 0x00	; 0
      fa:	80 81       	ld	r24, Z
      fc:	84 6a       	ori	r24, 0xA4	; 164
      fe:	80 83       	st	Z, r24
	 return I2C_TransCheck_ACK(I2C_START);
     100:	88 e0       	ldi	r24, 0x08	; 8
     102:	e3 cf       	rjmp	.-58     	; 0xca <I2C_TransCheck_ACK>
}
     104:	08 95       	ret

00000106 <I2C_Stop>:

void I2C_Stop(void)
{
	TWCR = ((1<< TWINT) | (1<<TWEN) | (1<<TWSTO));
     106:	84 e9       	ldi	r24, 0x94	; 148
     108:	80 93 74 00 	sts	0x0074, r24	; 0x800074 <__TEXT_REGION_LENGTH__+0x7e0074>
     10c:	08 95       	ret

0000010e <I2C_Write_SLAW>:
}
/***************************************/

unsigned char I2C_Write_SLAW(unsigned char Addr)
{
	TWDR = Addr;
     10e:	80 93 73 00 	sts	0x0073, r24	; 0x800073 <__TEXT_REGION_LENGTH__+0x7e0073>
	TWCR = (1<<TWINT) | (1<<TWEN);      // SLA + W ∆–≈∂ ∫∏≥ª±‚
     112:	84 e8       	ldi	r24, 0x84	; 132
     114:	80 93 74 00 	sts	0x0074, r24	; 0x800074 <__TEXT_REGION_LENGTH__+0x7e0074>
	return I2C_TransCheck_ACK(MT_SLA_ACK);
     118:	88 e1       	ldi	r24, 0x18	; 24
     11a:	d7 cf       	rjmp	.-82     	; 0xca <I2C_TransCheck_ACK>
}
     11c:	08 95       	ret

0000011e <I2C_Write_SLAR>:

unsigned char I2C_Write_SLAR(unsigned char Addr)
{
	TWDR = Addr|0x01;
     11e:	81 60       	ori	r24, 0x01	; 1
     120:	80 93 73 00 	sts	0x0073, r24	; 0x800073 <__TEXT_REGION_LENGTH__+0x7e0073>
	TWCR = (1<<TWINT) | (1<<TWEN);  // SLA + R ∆–≈∂ ∫∏≥ª±‚
     124:	84 e8       	ldi	r24, 0x84	; 132
     126:	80 93 74 00 	sts	0x0074, r24	; 0x800074 <__TEXT_REGION_LENGTH__+0x7e0074>
	return I2C_TransCheck_ACK(MR_SLA_ACK);
     12a:	80 e4       	ldi	r24, 0x40	; 64
     12c:	ce cf       	rjmp	.-100    	; 0xca <I2C_TransCheck_ACK>
}
     12e:	08 95       	ret

00000130 <I2C_Write>:

unsigned char I2C_Write(uint8_t var_i2cData_u8)
{
	TWDR = var_i2cData_u8 ;
     130:	80 93 73 00 	sts	0x0073, r24	; 0x800073 <__TEXT_REGION_LENGTH__+0x7e0073>
	TWCR = ((1<< TWINT) | (1<<TWEN));
     134:	84 e8       	ldi	r24, 0x84	; 132
     136:	80 93 74 00 	sts	0x0074, r24	; 0x800074 <__TEXT_REGION_LENGTH__+0x7e0074>
	return I2C_TransCheck_ACK(MT_DATA_ACK); 
     13a:	88 e2       	ldi	r24, 0x28	; 40
     13c:	c6 cf       	rjmp	.-116    	; 0xca <I2C_TransCheck_ACK>
}
     13e:	08 95       	ret

00000140 <I2C_Read>:

uint8_t I2C_Read(void)
{
	TWCR = ((1<< TWINT) | (1<<TWEN) | (1<<TWEA));
     140:	84 ec       	ldi	r24, 0xC4	; 196
     142:	80 93 74 00 	sts	0x0074, r24	; 0x800074 <__TEXT_REGION_LENGTH__+0x7e0074>
	while ( !(TWCR & (1 <<TWINT))); // wait recieve complete
     146:	80 91 74 00 	lds	r24, 0x0074	; 0x800074 <__TEXT_REGION_LENGTH__+0x7e0074>
     14a:	88 23       	and	r24, r24
     14c:	e4 f7       	brge	.-8      	; 0x146 <I2C_Read+0x6>
	I2C_TransCheck_ACK(MR_DATA_ACK);
     14e:	88 e5       	ldi	r24, 0x58	; 88
     150:	bc df       	rcall	.-136    	; 0xca <I2C_TransCheck_ACK>
	return TWDR;
     152:	80 91 73 00 	lds	r24, 0x0073	; 0x800073 <__TEXT_REGION_LENGTH__+0x7e0073>
     156:	08 95       	ret

00000158 <LCDBusyLoop>:
	LCDBusyLoop();

	((d & 0x0F) <= 9) ? (byte = '0' + (d & 0x0F)) : (byte = 'A' + (d & 0x0F) - 0x0A);
	LCDByte(byte, 1);
	LCDBusyLoop();
}
     158:	8a b3       	in	r24, 0x1a	; 26
     15a:	8f 70       	andi	r24, 0x0F	; 15
     15c:	8a bb       	out	0x1a, r24	; 26
     15e:	85 b3       	in	r24, 0x15	; 21
     160:	82 60       	ori	r24, 0x02	; 2
     162:	85 bb       	out	0x15, r24	; 21
     164:	85 b3       	in	r24, 0x15	; 21
     166:	8e 7f       	andi	r24, 0xFE	; 254
     168:	85 bb       	out	0x15, r24	; 21
     16a:	82 e0       	ldi	r24, 0x02	; 2
     16c:	8a 95       	dec	r24
     16e:	f1 f7       	brne	.-4      	; 0x16c <LCDBusyLoop+0x14>
     170:	00 c0       	rjmp	.+0      	; 0x172 <LCDBusyLoop+0x1a>
     172:	85 b3       	in	r24, 0x15	; 21
     174:	84 60       	ori	r24, 0x04	; 4
     176:	85 bb       	out	0x15, r24	; 21
     178:	92 e0       	ldi	r25, 0x02	; 2
     17a:	9a 95       	dec	r25
     17c:	f1 f7       	brne	.-4      	; 0x17a <LCDBusyLoop+0x22>
     17e:	00 c0       	rjmp	.+0      	; 0x180 <LCDBusyLoop+0x28>
     180:	89 b3       	in	r24, 0x19	; 25
     182:	80 7f       	andi	r24, 0xF0	; 240
     184:	92 e0       	ldi	r25, 0x02	; 2
     186:	9a 95       	dec	r25
     188:	f1 f7       	brne	.-4      	; 0x186 <LCDBusyLoop+0x2e>
     18a:	00 c0       	rjmp	.+0      	; 0x18c <LCDBusyLoop+0x34>
     18c:	95 b3       	in	r25, 0x15	; 21
     18e:	9b 7f       	andi	r25, 0xFB	; 251
     190:	95 bb       	out	0x15, r25	; 21
     192:	95 e0       	ldi	r25, 0x05	; 5
     194:	9a 95       	dec	r25
     196:	f1 f7       	brne	.-4      	; 0x194 <LCDBusyLoop+0x3c>
     198:	95 b3       	in	r25, 0x15	; 21
     19a:	94 60       	ori	r25, 0x04	; 4
     19c:	95 bb       	out	0x15, r25	; 21
     19e:	92 e0       	ldi	r25, 0x02	; 2
     1a0:	9a 95       	dec	r25
     1a2:	f1 f7       	brne	.-4      	; 0x1a0 <LCDBusyLoop+0x48>
     1a4:	00 c0       	rjmp	.+0      	; 0x1a6 <LCDBusyLoop+0x4e>
     1a6:	99 b3       	in	r25, 0x19	; 25
     1a8:	80 78       	andi	r24, 0x80	; 128
     1aa:	92 e0       	ldi	r25, 0x02	; 2
     1ac:	9a 95       	dec	r25
     1ae:	f1 f7       	brne	.-4      	; 0x1ac <LCDBusyLoop+0x54>
     1b0:	00 c0       	rjmp	.+0      	; 0x1b2 <LCDBusyLoop+0x5a>
     1b2:	95 b3       	in	r25, 0x15	; 21
     1b4:	9b 7f       	andi	r25, 0xFB	; 251
     1b6:	95 bb       	out	0x15, r25	; 21
     1b8:	95 e0       	ldi	r25, 0x05	; 5
     1ba:	9a 95       	dec	r25
     1bc:	f1 f7       	brne	.-4      	; 0x1ba <LCDBusyLoop+0x62>
     1be:	81 11       	cpse	r24, r1
     1c0:	d8 cf       	rjmp	.-80     	; 0x172 <LCDBusyLoop+0x1a>
     1c2:	85 b3       	in	r24, 0x15	; 21
     1c4:	8d 7f       	andi	r24, 0xFD	; 253
     1c6:	85 bb       	out	0x15, r24	; 21
     1c8:	8a b3       	in	r24, 0x1a	; 26
     1ca:	80 6f       	ori	r24, 0xF0	; 240
     1cc:	8a bb       	out	0x1a, r24	; 26
     1ce:	08 95       	ret

000001d0 <LCDByte>:
     1d0:	98 2f       	mov	r25, r24
     1d2:	92 95       	swap	r25
     1d4:	9f 70       	andi	r25, 0x0F	; 15
     1d6:	8f 70       	andi	r24, 0x0F	; 15
     1d8:	61 11       	cpse	r22, r1
     1da:	04 c0       	rjmp	.+8      	; 0x1e4 <LCDByte+0x14>
     1dc:	25 b3       	in	r18, 0x15	; 21
     1de:	2e 7f       	andi	r18, 0xFE	; 254
     1e0:	25 bb       	out	0x15, r18	; 21
     1e2:	03 c0       	rjmp	.+6      	; 0x1ea <LCDByte+0x1a>
     1e4:	25 b3       	in	r18, 0x15	; 21
     1e6:	21 60       	ori	r18, 0x01	; 1
     1e8:	25 bb       	out	0x15, r18	; 21
     1ea:	28 e1       	ldi	r18, 0x18	; 24
     1ec:	2a 95       	dec	r18
     1ee:	f1 f7       	brne	.-4      	; 0x1ec <LCDByte+0x1c>
     1f0:	00 c0       	rjmp	.+0      	; 0x1f2 <LCDByte+0x22>
     1f2:	25 b3       	in	r18, 0x15	; 21
     1f4:	24 60       	ori	r18, 0x04	; 4
     1f6:	25 bb       	out	0x15, r18	; 21
     1f8:	4b b3       	in	r20, 0x1b	; 27
     1fa:	50 e1       	ldi	r21, 0x10	; 16
     1fc:	95 9f       	mul	r25, r21
     1fe:	90 01       	movw	r18, r0
     200:	11 24       	eor	r1, r1
     202:	94 2f       	mov	r25, r20
     204:	9f 70       	andi	r25, 0x0F	; 15
     206:	29 2b       	or	r18, r25
     208:	2b bb       	out	0x1b, r18	; 27
     20a:	98 e1       	ldi	r25, 0x18	; 24
     20c:	9a 95       	dec	r25
     20e:	f1 f7       	brne	.-4      	; 0x20c <LCDByte+0x3c>
     210:	00 c0       	rjmp	.+0      	; 0x212 <LCDByte+0x42>
     212:	95 b3       	in	r25, 0x15	; 21
     214:	9b 7f       	andi	r25, 0xFB	; 251
     216:	95 bb       	out	0x15, r25	; 21
     218:	28 e1       	ldi	r18, 0x18	; 24
     21a:	2a 95       	dec	r18
     21c:	f1 f7       	brne	.-4      	; 0x21a <LCDByte+0x4a>
     21e:	00 c0       	rjmp	.+0      	; 0x220 <LCDByte+0x50>
     220:	95 b3       	in	r25, 0x15	; 21
     222:	94 60       	ori	r25, 0x04	; 4
     224:	95 bb       	out	0x15, r25	; 21
     226:	2b b3       	in	r18, 0x1b	; 27
     228:	30 e1       	ldi	r19, 0x10	; 16
     22a:	83 9f       	mul	r24, r19
     22c:	c0 01       	movw	r24, r0
     22e:	11 24       	eor	r1, r1
     230:	92 2f       	mov	r25, r18
     232:	9f 70       	andi	r25, 0x0F	; 15
     234:	89 2b       	or	r24, r25
     236:	8b bb       	out	0x1b, r24	; 27
     238:	58 e1       	ldi	r21, 0x18	; 24
     23a:	5a 95       	dec	r21
     23c:	f1 f7       	brne	.-4      	; 0x23a <LCDByte+0x6a>
     23e:	00 c0       	rjmp	.+0      	; 0x240 <LCDByte+0x70>
     240:	85 b3       	in	r24, 0x15	; 21
     242:	8b 7f       	andi	r24, 0xFB	; 251
     244:	85 bb       	out	0x15, r24	; 21
     246:	88 e1       	ldi	r24, 0x18	; 24
     248:	8a 95       	dec	r24
     24a:	f1 f7       	brne	.-4      	; 0x248 <LCDByte+0x78>
     24c:	00 c0       	rjmp	.+0      	; 0x24e <LCDByte+0x7e>
     24e:	84 cf       	rjmp	.-248    	; 0x158 <LCDBusyLoop>
     250:	08 95       	ret

00000252 <LCDWriteString>:
     252:	0f 93       	push	r16
     254:	1f 93       	push	r17
     256:	cf 93       	push	r28
     258:	df 93       	push	r29
     25a:	ec 01       	movw	r28, r24
     25c:	18 c0       	rjmp	.+48     	; 0x28e <LCDWriteString+0x3c>
     25e:	85 32       	cpi	r24, 0x25	; 37
     260:	99 f4       	brne	.+38     	; 0x288 <LCDWriteString+0x36>
     262:	8e 01       	movw	r16, r28
     264:	0f 5f       	subi	r16, 0xFF	; 255
     266:	1f 4f       	sbci	r17, 0xFF	; 255
     268:	89 81       	ldd	r24, Y+1	; 0x01
     26a:	80 53       	subi	r24, 0x30	; 48
     26c:	88 30       	cpi	r24, 0x08	; 8
     26e:	20 f4       	brcc	.+8      	; 0x278 <LCDWriteString+0x26>
     270:	61 e0       	ldi	r22, 0x01	; 1
     272:	ae df       	rcall	.-164    	; 0x1d0 <LCDByte>
     274:	e8 01       	movw	r28, r16
     276:	0a c0       	rjmp	.+20     	; 0x28c <LCDWriteString+0x3a>
     278:	61 e0       	ldi	r22, 0x01	; 1
     27a:	85 e2       	ldi	r24, 0x25	; 37
     27c:	a9 df       	rcall	.-174    	; 0x1d0 <LCDByte>
     27e:	61 e0       	ldi	r22, 0x01	; 1
     280:	89 81       	ldd	r24, Y+1	; 0x01
     282:	a6 df       	rcall	.-180    	; 0x1d0 <LCDByte>
     284:	e8 01       	movw	r28, r16
     286:	02 c0       	rjmp	.+4      	; 0x28c <LCDWriteString+0x3a>
     288:	61 e0       	ldi	r22, 0x01	; 1
     28a:	a2 df       	rcall	.-188    	; 0x1d0 <LCDByte>
     28c:	21 96       	adiw	r28, 0x01	; 1
     28e:	88 81       	ld	r24, Y
     290:	81 11       	cpse	r24, r1
     292:	e5 cf       	rjmp	.-54     	; 0x25e <LCDWriteString+0xc>
     294:	df 91       	pop	r29
     296:	cf 91       	pop	r28
     298:	1f 91       	pop	r17
     29a:	0f 91       	pop	r16
     29c:	08 95       	ret

0000029e <LCDWriteInt>:
     29e:	ef 92       	push	r14
     2a0:	ff 92       	push	r15
     2a2:	0f 93       	push	r16
     2a4:	1f 93       	push	r17
     2a6:	cf 93       	push	r28
     2a8:	df 93       	push	r29
     2aa:	00 d0       	rcall	.+0      	; 0x2ac <LCDWriteInt+0xe>
     2ac:	00 d0       	rcall	.+0      	; 0x2ae <LCDWriteInt+0x10>
     2ae:	1f 92       	push	r1
     2b0:	cd b7       	in	r28, 0x3d	; 61
     2b2:	de b7       	in	r29, 0x3e	; 62
     2b4:	7b 01       	movw	r14, r22
     2b6:	fe 01       	movw	r30, r28
     2b8:	31 96       	adiw	r30, 0x01	; 1
     2ba:	25 e0       	ldi	r18, 0x05	; 5
     2bc:	df 01       	movw	r26, r30
     2be:	1d 92       	st	X+, r1
     2c0:	2a 95       	dec	r18
     2c2:	e9 f7       	brne	.-6      	; 0x2be <LCDWriteInt+0x20>
     2c4:	24 e0       	ldi	r18, 0x04	; 4
     2c6:	30 e0       	ldi	r19, 0x00	; 0
     2c8:	0e c0       	rjmp	.+28     	; 0x2e6 <LCDWriteInt+0x48>
     2ca:	6a e0       	ldi	r22, 0x0A	; 10
     2cc:	70 e0       	ldi	r23, 0x00	; 0
     2ce:	fe d4       	rcall	.+2556   	; 0xccc <__divmodhi4>
     2d0:	e1 e0       	ldi	r30, 0x01	; 1
     2d2:	f0 e0       	ldi	r31, 0x00	; 0
     2d4:	ec 0f       	add	r30, r28
     2d6:	fd 1f       	adc	r31, r29
     2d8:	e2 0f       	add	r30, r18
     2da:	f3 1f       	adc	r31, r19
     2dc:	80 83       	st	Z, r24
     2de:	86 2f       	mov	r24, r22
     2e0:	97 2f       	mov	r25, r23
     2e2:	21 50       	subi	r18, 0x01	; 1
     2e4:	31 09       	sbc	r19, r1
     2e6:	00 97       	sbiw	r24, 0x00	; 0
     2e8:	81 f7       	brne	.-32     	; 0x2ca <LCDWriteInt+0x2c>
     2ea:	bf ef       	ldi	r27, 0xFF	; 255
     2ec:	eb 16       	cp	r14, r27
     2ee:	fb 06       	cpc	r15, r27
     2f0:	81 f4       	brne	.+32     	; 0x312 <LCDWriteInt+0x74>
     2f2:	03 c0       	rjmp	.+6      	; 0x2fa <LCDWriteInt+0x5c>
     2f4:	0f 5f       	subi	r16, 0xFF	; 255
     2f6:	1f 4f       	sbci	r17, 0xFF	; 255
     2f8:	02 c0       	rjmp	.+4      	; 0x2fe <LCDWriteInt+0x60>
     2fa:	00 e0       	ldi	r16, 0x00	; 0
     2fc:	10 e0       	ldi	r17, 0x00	; 0
     2fe:	e1 e0       	ldi	r30, 0x01	; 1
     300:	f0 e0       	ldi	r31, 0x00	; 0
     302:	ec 0f       	add	r30, r28
     304:	fd 1f       	adc	r31, r29
     306:	e0 0f       	add	r30, r16
     308:	f1 1f       	adc	r31, r17
     30a:	20 81       	ld	r18, Z
     30c:	22 23       	and	r18, r18
     30e:	91 f3       	breq	.-28     	; 0x2f4 <LCDWriteInt+0x56>
     310:	04 c0       	rjmp	.+8      	; 0x31a <LCDWriteInt+0x7c>
     312:	05 e0       	ldi	r16, 0x05	; 5
     314:	10 e0       	ldi	r17, 0x00	; 0
     316:	0e 19       	sub	r16, r14
     318:	1f 09       	sbc	r17, r15
     31a:	99 23       	and	r25, r25
     31c:	84 f4       	brge	.+32     	; 0x33e <LCDWriteInt+0xa0>
     31e:	61 e0       	ldi	r22, 0x01	; 1
     320:	8d e2       	ldi	r24, 0x2D	; 45
     322:	56 df       	rcall	.-340    	; 0x1d0 <LCDByte>
     324:	0c c0       	rjmp	.+24     	; 0x33e <LCDWriteInt+0xa0>
     326:	e1 e0       	ldi	r30, 0x01	; 1
     328:	f0 e0       	ldi	r31, 0x00	; 0
     32a:	ec 0f       	add	r30, r28
     32c:	fd 1f       	adc	r31, r29
     32e:	e0 0f       	add	r30, r16
     330:	f1 1f       	adc	r31, r17
     332:	80 81       	ld	r24, Z
     334:	61 e0       	ldi	r22, 0x01	; 1
     336:	80 5d       	subi	r24, 0xD0	; 208
     338:	4b df       	rcall	.-362    	; 0x1d0 <LCDByte>
     33a:	0f 5f       	subi	r16, 0xFF	; 255
     33c:	1f 4f       	sbci	r17, 0xFF	; 255
     33e:	05 30       	cpi	r16, 0x05	; 5
     340:	11 05       	cpc	r17, r1
     342:	8c f3       	brlt	.-30     	; 0x326 <LCDWriteInt+0x88>
     344:	0f 90       	pop	r0
     346:	0f 90       	pop	r0
     348:	0f 90       	pop	r0
     34a:	0f 90       	pop	r0
     34c:	0f 90       	pop	r0
     34e:	df 91       	pop	r29
     350:	cf 91       	pop	r28
     352:	1f 91       	pop	r17
     354:	0f 91       	pop	r16
     356:	ff 90       	pop	r15
     358:	ef 90       	pop	r14
     35a:	08 95       	ret

0000035c <LCDGotoXY>:
     35c:	84 31       	cpi	r24, 0x14	; 20
     35e:	30 f4       	brcc	.+12     	; 0x36c <LCDGotoXY+0x10>
     360:	61 30       	cpi	r22, 0x01	; 1
     362:	09 f4       	brne	.+2      	; 0x366 <LCDGotoXY+0xa>
     364:	80 64       	ori	r24, 0x40	; 64
     366:	60 e0       	ldi	r22, 0x00	; 0
     368:	80 68       	ori	r24, 0x80	; 128
     36a:	32 cf       	rjmp	.-412    	; 0x1d0 <LCDByte>
     36c:	08 95       	ret

0000036e <LCDInit>:
     36e:	cf 93       	push	r28
     370:	c8 2f       	mov	r28, r24
     372:	29 e9       	ldi	r18, 0x99	; 153
     374:	89 e5       	ldi	r24, 0x59	; 89
     376:	91 e0       	ldi	r25, 0x01	; 1
     378:	21 50       	subi	r18, 0x01	; 1
     37a:	80 40       	sbci	r24, 0x00	; 0
     37c:	90 40       	sbci	r25, 0x00	; 0
     37e:	e1 f7       	brne	.-8      	; 0x378 <LCDInit+0xa>
     380:	00 00       	nop
     382:	8a b3       	in	r24, 0x1a	; 26
     384:	80 6f       	ori	r24, 0xF0	; 240
     386:	8a bb       	out	0x1a, r24	; 26
     388:	84 b3       	in	r24, 0x14	; 20
     38a:	84 60       	ori	r24, 0x04	; 4
     38c:	84 bb       	out	0x14, r24	; 20
     38e:	84 b3       	in	r24, 0x14	; 20
     390:	81 60       	ori	r24, 0x01	; 1
     392:	84 bb       	out	0x14, r24	; 20
     394:	84 b3       	in	r24, 0x14	; 20
     396:	82 60       	ori	r24, 0x02	; 2
     398:	84 bb       	out	0x14, r24	; 20
     39a:	8b b3       	in	r24, 0x1b	; 27
     39c:	8f 70       	andi	r24, 0x0F	; 15
     39e:	8b bb       	out	0x1b, r24	; 27
     3a0:	85 b3       	in	r24, 0x15	; 21
     3a2:	8b 7f       	andi	r24, 0xFB	; 251
     3a4:	85 bb       	out	0x15, r24	; 21
     3a6:	85 b3       	in	r24, 0x15	; 21
     3a8:	8d 7f       	andi	r24, 0xFD	; 253
     3aa:	85 bb       	out	0x15, r24	; 21
     3ac:	85 b3       	in	r24, 0x15	; 21
     3ae:	8e 7f       	andi	r24, 0xFE	; 254
     3b0:	85 bb       	out	0x15, r24	; 21
     3b2:	00 c0       	rjmp	.+0      	; 0x3b4 <LCDInit+0x46>
     3b4:	00 c0       	rjmp	.+0      	; 0x3b6 <LCDInit+0x48>
     3b6:	00 00       	nop
     3b8:	85 b3       	in	r24, 0x15	; 21
     3ba:	84 60       	ori	r24, 0x04	; 4
     3bc:	85 bb       	out	0x15, r24	; 21
     3be:	8b b3       	in	r24, 0x1b	; 27
     3c0:	80 62       	ori	r24, 0x20	; 32
     3c2:	8b bb       	out	0x1b, r24	; 27
     3c4:	25 e0       	ldi	r18, 0x05	; 5
     3c6:	2a 95       	dec	r18
     3c8:	f1 f7       	brne	.-4      	; 0x3c6 <LCDInit+0x58>
     3ca:	85 b3       	in	r24, 0x15	; 21
     3cc:	8b 7f       	andi	r24, 0xFB	; 251
     3ce:	85 bb       	out	0x15, r24	; 21
     3d0:	85 e0       	ldi	r24, 0x05	; 5
     3d2:	8a 95       	dec	r24
     3d4:	f1 f7       	brne	.-4      	; 0x3d2 <LCDInit+0x64>
     3d6:	c0 de       	rcall	.-640    	; 0x158 <LCDBusyLoop>
     3d8:	60 e0       	ldi	r22, 0x00	; 0
     3da:	8c 2f       	mov	r24, r28
     3dc:	8c 60       	ori	r24, 0x0C	; 12
     3de:	f8 de       	rcall	.-528    	; 0x1d0 <LCDByte>
     3e0:	60 e0       	ldi	r22, 0x00	; 0
     3e2:	88 e2       	ldi	r24, 0x28	; 40
     3e4:	f5 de       	rcall	.-534    	; 0x1d0 <LCDByte>
     3e6:	60 e0       	ldi	r22, 0x00	; 0
     3e8:	80 e0       	ldi	r24, 0x00	; 0
     3ea:	b8 df       	rcall	.-144    	; 0x35c <LCDGotoXY>
     3ec:	cf 91       	pop	r28
     3ee:	08 95       	ret

000003f0 <LCD_Clear>:

void LCD_Clear(void)
{
	LCDCmd(0b00000001);
     3f0:	60 e0       	ldi	r22, 0x00	; 0
     3f2:	81 e0       	ldi	r24, 0x01	; 1
     3f4:	ed ce       	rjmp	.-550    	; 0x1d0 <LCDByte>
     3f6:	08 95       	ret

000003f8 <adcinit>:

int parsing(void);

void adcinit(void)
{
	DDRF = 0x01;
     3f8:	81 e0       	ldi	r24, 0x01	; 1
     3fa:	80 93 61 00 	sts	0x0061, r24	; 0x800061 <__TEXT_REGION_LENGTH__+0x7e0061>
	ADCSRA |= (1<< ADPS2)|(1<< ADPS1)|(1<< ADPS0); // prescale 128
     3fe:	86 b1       	in	r24, 0x06	; 6
     400:	87 60       	ori	r24, 0x07	; 7
     402:	86 b9       	out	0x06, r24	; 6
	ADMUX |= 0X00; // AREF 5V
     404:	87 b1       	in	r24, 0x07	; 7
     406:	87 b9       	out	0x07, r24	; 7
	ADCSRA |= (1<<ADEN);
     408:	86 b1       	in	r24, 0x06	; 6
     40a:	80 68       	ori	r24, 0x80	; 128
     40c:	86 b9       	out	0x06, r24	; 6
     40e:	08 95       	ret

00000410 <readAdc>:
}

uint16_t readAdc(uint8_t channel)
{
	ADMUX |= channel;
     410:	97 b1       	in	r25, 0x07	; 7
     412:	89 2b       	or	r24, r25
     414:	87 b9       	out	0x07, r24	; 7
	ADCSRA |= (1<<ADSC); // adc start
     416:	86 b1       	in	r24, 0x06	; 6
     418:	80 64       	ori	r24, 0x40	; 64
     41a:	86 b9       	out	0x06, r24	; 6
	while(ADCSRA&(1<<ADSC)); //wait adc
     41c:	36 99       	sbic	0x06, 6	; 6
     41e:	fe cf       	rjmp	.-4      	; 0x41c <readAdc+0xc>
	
	return ADCW; // ADCH, ADCL
     420:	84 b1       	in	r24, 0x04	; 4
     422:	95 b1       	in	r25, 0x05	; 5
}
     424:	08 95       	ret

00000426 <Timer1Init>:

void Timer1Init()
{
	DDRB|=0x20;
     426:	87 b3       	in	r24, 0x17	; 23
     428:	80 62       	ori	r24, 0x20	; 32
     42a:	87 bb       	out	0x17, r24	; 23
	PORTB|=0x20;
     42c:	88 b3       	in	r24, 0x18	; 24
     42e:	80 62       	ori	r24, 0x20	; 32
     430:	88 bb       	out	0x18, r24	; 24
	TCCR1A=0x82;
     432:	82 e8       	ldi	r24, 0x82	; 130
     434:	8f bd       	out	0x2f, r24	; 47
	TCCR1B=0x1b;
     436:	8b e1       	ldi	r24, 0x1B	; 27
     438:	8e bd       	out	0x2e, r24	; 46
	ICR1=4999;     //TOP
     43a:	87 e8       	ldi	r24, 0x87	; 135
     43c:	93 e1       	ldi	r25, 0x13	; 19
     43e:	97 bd       	out	0x27, r25	; 39
     440:	86 bd       	out	0x26, r24	; 38
	OCR1A=375;     //0ÎèÑ	
     442:	87 e7       	ldi	r24, 0x77	; 119
     444:	91 e0       	ldi	r25, 0x01	; 1
     446:	9b bd       	out	0x2b, r25	; 43
     448:	8a bd       	out	0x2a, r24	; 42
     44a:	08 95       	ret

0000044c <LEDInit>:
}

void LEDInit()
{
	DDRB |= 0x0f; // 4~7
     44c:	87 b3       	in	r24, 0x17	; 23
     44e:	8f 60       	ori	r24, 0x0F	; 15
     450:	87 bb       	out	0x17, r24	; 23
	DDRG |= 0x0f; // 0~3
     452:	e4 e6       	ldi	r30, 0x64	; 100
     454:	f0 e0       	ldi	r31, 0x00	; 0
     456:	80 81       	ld	r24, Z
     458:	8f 60       	ori	r24, 0x0F	; 15
     45a:	80 83       	st	Z, r24
     45c:	08 95       	ret

0000045e <LED_Toggle>:
}
void LED_Toggle(void)
{
	PORTB |= 0x0f;
     45e:	88 b3       	in	r24, 0x18	; 24
     460:	8f 60       	ori	r24, 0x0F	; 15
     462:	88 bb       	out	0x18, r24	; 24
	PORTG |= 0x0f;
     464:	e5 e6       	ldi	r30, 0x65	; 101
     466:	f0 e0       	ldi	r31, 0x00	; 0
     468:	80 81       	ld	r24, Z
     46a:	8f 60       	ori	r24, 0x0F	; 15
     46c:	80 83       	st	Z, r24
	#else
		//round up by default
		__ticks_dc = (uint32_t)(ceil(fabs(__tmp)));
	#endif

	__builtin_avr_delay_cycles(__ticks_dc);
     46e:	2f ef       	ldi	r18, 0xFF	; 255
     470:	8f e7       	ldi	r24, 0x7F	; 127
     472:	94 e0       	ldi	r25, 0x04	; 4
     474:	21 50       	subi	r18, 0x01	; 1
     476:	80 40       	sbci	r24, 0x00	; 0
     478:	90 40       	sbci	r25, 0x00	; 0
     47a:	e1 f7       	brne	.-8      	; 0x474 <LED_Toggle+0x16>
     47c:	00 c0       	rjmp	.+0      	; 0x47e <LED_Toggle+0x20>
     47e:	00 00       	nop
	_delay_ms(100);
	PORTB &= 0x00;
     480:	88 b3       	in	r24, 0x18	; 24
     482:	18 ba       	out	0x18, r1	; 24
	PORTG &= 0x00;
     484:	80 81       	ld	r24, Z
     486:	10 82       	st	Z, r1
     488:	2f ef       	ldi	r18, 0xFF	; 255
     48a:	8f e7       	ldi	r24, 0x7F	; 127
     48c:	94 e0       	ldi	r25, 0x04	; 4
     48e:	21 50       	subi	r18, 0x01	; 1
     490:	80 40       	sbci	r24, 0x00	; 0
     492:	90 40       	sbci	r25, 0x00	; 0
     494:	e1 f7       	brne	.-8      	; 0x48e <LED_Toggle+0x30>
     496:	00 c0       	rjmp	.+0      	; 0x498 <LED_Toggle+0x3a>
     498:	00 00       	nop
     49a:	08 95       	ret

0000049c <Servo_On>:
	_delay_ms(100);
}

void Servo_On(void)
{
	OCR1A=250;     //-90ÎèÑ
     49c:	8a ef       	ldi	r24, 0xFA	; 250
     49e:	90 e0       	ldi	r25, 0x00	; 0
     4a0:	9b bd       	out	0x2b, r25	; 43
     4a2:	8a bd       	out	0x2a, r24	; 42
     4a4:	2f ef       	ldi	r18, 0xFF	; 255
     4a6:	8f ef       	ldi	r24, 0xFF	; 255
     4a8:	9c e2       	ldi	r25, 0x2C	; 44
     4aa:	21 50       	subi	r18, 0x01	; 1
     4ac:	80 40       	sbci	r24, 0x00	; 0
     4ae:	90 40       	sbci	r25, 0x00	; 0
     4b0:	e1 f7       	brne	.-8      	; 0x4aa <Servo_On+0xe>
     4b2:	00 c0       	rjmp	.+0      	; 0x4b4 <Servo_On+0x18>
     4b4:	00 00       	nop
     4b6:	08 95       	ret

000004b8 <Servo_Off>:

void Servo_Off(void)
{
	//OCR1A=250;     //-90ÎèÑ
	//_delay_ms(1000);
	OCR1A=500;     //90ÎèÑ
     4b8:	84 ef       	ldi	r24, 0xF4	; 244
     4ba:	91 e0       	ldi	r25, 0x01	; 1
     4bc:	9b bd       	out	0x2b, r25	; 43
     4be:	8a bd       	out	0x2a, r24	; 42
     4c0:	2f ef       	ldi	r18, 0xFF	; 255
     4c2:	8f ef       	ldi	r24, 0xFF	; 255
     4c4:	9c e2       	ldi	r25, 0x2C	; 44
     4c6:	21 50       	subi	r18, 0x01	; 1
     4c8:	80 40       	sbci	r24, 0x00	; 0
     4ca:	90 40       	sbci	r25, 0x00	; 0
     4cc:	e1 f7       	brne	.-8      	; 0x4c6 <Servo_Off+0xe>
     4ce:	00 c0       	rjmp	.+0      	; 0x4d0 <Servo_Off+0x18>
     4d0:	00 00       	nop
     4d2:	08 95       	ret

000004d4 <__vector_30>:
	_delay_ms(1000);
}
ISR(USART1_RX_vect)
{
     4d4:	1f 92       	push	r1
     4d6:	0f 92       	push	r0
     4d8:	0f b6       	in	r0, 0x3f	; 63
     4da:	0f 92       	push	r0
     4dc:	11 24       	eor	r1, r1
     4de:	0b b6       	in	r0, 0x3b	; 59
     4e0:	0f 92       	push	r0
     4e2:	2f 93       	push	r18
     4e4:	3f 93       	push	r19
     4e6:	8f 93       	push	r24
     4e8:	9f 93       	push	r25
     4ea:	ef 93       	push	r30
     4ec:	ff 93       	push	r31
	char msg = UDR1;
     4ee:	80 91 9c 00 	lds	r24, 0x009C	; 0x80009c <__TEXT_REGION_LENGTH__+0x7e009c>
	if(msg == 'E')
     4f2:	85 34       	cpi	r24, 0x45	; 69
     4f4:	19 f1       	breq	.+70     	; 0x53c <__vector_30+0x68>
	{
	
	}
	else if(msg != 'L')
     4f6:	8c 34       	cpi	r24, 0x4C	; 76
     4f8:	79 f0       	breq	.+30     	; 0x518 <__vector_30+0x44>
	{
		//UART0_transmit((char)index);
		buff[index] = msg;
     4fa:	20 91 40 01 	lds	r18, 0x0140	; 0x800140 <index>
     4fe:	30 91 41 01 	lds	r19, 0x0141	; 0x800141 <index+0x1>
     502:	f9 01       	movw	r30, r18
     504:	ee 5b       	subi	r30, 0xBE	; 190
     506:	fe 4f       	sbci	r31, 0xFE	; 254
     508:	80 83       	st	Z, r24
		//UART0_transmit(buff[index]);
		index++;
     50a:	2f 5f       	subi	r18, 0xFF	; 255
     50c:	3f 4f       	sbci	r19, 0xFF	; 255
     50e:	30 93 41 01 	sts	0x0141, r19	; 0x800141 <index+0x1>
     512:	20 93 40 01 	sts	0x0140, r18	; 0x800140 <index>
     516:	12 c0       	rjmp	.+36     	; 0x53c <__vector_30+0x68>
		//UART0_transmit('\n');
	}
	else 
	{
		buff[index] = 'L';
     518:	e0 91 40 01 	lds	r30, 0x0140	; 0x800140 <index>
     51c:	f0 91 41 01 	lds	r31, 0x0141	; 0x800141 <index+0x1>
     520:	ee 5b       	subi	r30, 0xBE	; 190
     522:	fe 4f       	sbci	r31, 0xFE	; 254
     524:	8c e4       	ldi	r24, 0x4C	; 76
     526:	80 83       	st	Z, r24
		index = 0;
     528:	10 92 41 01 	sts	0x0141, r1	; 0x800141 <index+0x1>
     52c:	10 92 40 01 	sts	0x0140, r1	; 0x800140 <index>
		flag = 1; 
     530:	81 e0       	ldi	r24, 0x01	; 1
     532:	90 e0       	ldi	r25, 0x00	; 0
     534:	90 93 3f 01 	sts	0x013F, r25	; 0x80013f <flag+0x1>
     538:	80 93 3e 01 	sts	0x013E, r24	; 0x80013e <flag>
	}
	//_delay_ms(1);
}
     53c:	ff 91       	pop	r31
     53e:	ef 91       	pop	r30
     540:	9f 91       	pop	r25
     542:	8f 91       	pop	r24
     544:	3f 91       	pop	r19
     546:	2f 91       	pop	r18
     548:	0f 90       	pop	r0
     54a:	0b be       	out	0x3b, r0	; 59
     54c:	0f 90       	pop	r0
     54e:	0f be       	out	0x3f, r0	; 63
     550:	0f 90       	pop	r0
     552:	1f 90       	pop	r1
     554:	18 95       	reti

00000556 <parsing>:

	}
}

int parsing(void)
{
     556:	cf 92       	push	r12
     558:	df 92       	push	r13
     55a:	ef 92       	push	r14
     55c:	ff 92       	push	r15
     55e:	0f 93       	push	r16
     560:	1f 93       	push	r17
     562:	cf 93       	push	r28
     564:	df 93       	push	r29
     566:	cd b7       	in	r28, 0x3d	; 61
     568:	de b7       	in	r29, 0x3e	; 62
     56a:	a6 97       	sbiw	r28, 0x26	; 38
     56c:	0f b6       	in	r0, 0x3f	; 63
     56e:	f8 94       	cli
     570:	de bf       	out	0x3e, r29	; 62
     572:	0f be       	out	0x3f, r0	; 63
     574:	cd bf       	out	0x3d, r28	; 61
	int str_len, door_len, state_len;
	char *pArray[4] = {0};
     576:	fe 01       	movw	r30, r28
     578:	31 96       	adiw	r30, 0x01	; 1
     57a:	88 e0       	ldi	r24, 0x08	; 8
     57c:	df 01       	movw	r26, r30
     57e:	1d 92       	st	X+, r1
     580:	8a 95       	dec	r24
     582:	e9 f7       	brne	.-6      	; 0x57e <parsing+0x28>
	char *pToken = NULL;
	int i;
	char *ptr_door = NULL, *ptr_state = NULL;
	static char door[10] = { 0 }, state_char[10] = { 0 };
	int state = 0;
	char ssparsing[30] = { 0 };
     584:	38 96       	adiw	r30, 0x08	; 8
     586:	8e e1       	ldi	r24, 0x1E	; 30
     588:	df 01       	movw	r26, r30
     58a:	1d 92       	st	X+, r1
     58c:	8a 95       	dec	r24
     58e:	e9 f7       	brne	.-6      	; 0x58a <parsing+0x34>
	
	
	
	str_len = strlen(buff);
     590:	e2 e4       	ldi	r30, 0x42	; 66
     592:	f1 e0       	ldi	r31, 0x01	; 1
     594:	01 90       	ld	r0, Z+
     596:	00 20       	and	r0, r0
     598:	e9 f7       	brne	.-6      	; 0x594 <parsing+0x3e>
     59a:	31 97       	sbiw	r30, 0x01	; 1
     59c:	9f 01       	movw	r18, r30
     59e:	22 54       	subi	r18, 0x42	; 66
     5a0:	31 40       	sbci	r19, 0x01	; 1
     5a2:	79 01       	movw	r14, r18
	pToken = strtok(buff, "#");
     5a4:	60 e0       	ldi	r22, 0x00	; 0
     5a6:	71 e0       	ldi	r23, 0x01	; 1
     5a8:	82 e4       	ldi	r24, 0x42	; 66
     5aa:	91 e0       	ldi	r25, 0x01	; 1
     5ac:	d3 d3       	rcall	.+1958   	; 0xd54 <strtok>
		
	i = 0;
     5ae:	00 e0       	ldi	r16, 0x00	; 0
     5b0:	10 e0       	ldi	r17, 0x00	; 0
	while(pToken != NULL) {
     5b2:	12 c0       	rjmp	.+36     	; 0x5d8 <parsing+0x82>
		pArray[i] = pToken;
     5b4:	f8 01       	movw	r30, r16
     5b6:	ee 0f       	add	r30, r30
     5b8:	ff 1f       	adc	r31, r31
     5ba:	a1 e0       	ldi	r26, 0x01	; 1
     5bc:	b0 e0       	ldi	r27, 0x00	; 0
     5be:	ac 0f       	add	r26, r28
     5c0:	bd 1f       	adc	r27, r29
     5c2:	ea 0f       	add	r30, r26
     5c4:	fb 1f       	adc	r31, r27
     5c6:	91 83       	std	Z+1, r25	; 0x01
     5c8:	80 83       	st	Z, r24
		pToken = strtok(NULL, "L");
     5ca:	62 e0       	ldi	r22, 0x02	; 2
     5cc:	71 e0       	ldi	r23, 0x01	; 1
     5ce:	80 e0       	ldi	r24, 0x00	; 0
     5d0:	90 e0       	ldi	r25, 0x00	; 0
     5d2:	c0 d3       	rcall	.+1920   	; 0xd54 <strtok>
		i++;
     5d4:	0f 5f       	subi	r16, 0xFF	; 255
     5d6:	1f 4f       	sbci	r17, 0xFF	; 255
	
	str_len = strlen(buff);
	pToken = strtok(buff, "#");
		
	i = 0;
	while(pToken != NULL) {
     5d8:	00 97       	sbiw	r24, 0x00	; 0
     5da:	61 f7       	brne	.-40     	; 0x5b4 <parsing+0x5e>
		pArray[i] = pToken;
		pToken = strtok(NULL, "L");
		i++;
	}
		
	ptr_door = pArray[0];
     5dc:	09 81       	ldd	r16, Y+1	; 0x01
     5de:	1a 81       	ldd	r17, Y+2	; 0x02
	ptr_state = pArray[1];
     5e0:	ab 81       	ldd	r26, Y+3	; 0x03
     5e2:	bc 81       	ldd	r27, Y+4	; 0x04
		
	door_len = strlen(ptr_door);
     5e4:	f8 01       	movw	r30, r16
     5e6:	01 90       	ld	r0, Z+
     5e8:	00 20       	and	r0, r0
     5ea:	e9 f7       	brne	.-6      	; 0x5e6 <parsing+0x90>
     5ec:	31 97       	sbiw	r30, 0x01	; 1
     5ee:	bf 01       	movw	r22, r30
     5f0:	60 1b       	sub	r22, r16
     5f2:	71 0b       	sbc	r23, r17
	state_len = strlen(ptr_state);
     5f4:	fd 01       	movw	r30, r26
     5f6:	01 90       	ld	r0, Z+
     5f8:	00 20       	and	r0, r0
     5fa:	e9 f7       	brne	.-6      	; 0x5f6 <parsing+0xa0>
     5fc:	31 97       	sbiw	r30, 0x01	; 1
     5fe:	af 01       	movw	r20, r30
     600:	4a 1b       	sub	r20, r26
     602:	5b 0b       	sbc	r21, r27

	if(door_len > 0) {
     604:	16 16       	cp	r1, r22
     606:	17 06       	cpc	r1, r23
     608:	5c f0       	brlt	.+22     	; 0x620 <parsing+0xca>
     60a:	0f c0       	rjmp	.+30     	; 0x62a <parsing+0xd4>
		for (int i = 0; i <= door_len; i++)
		door[i] = *(ptr_door + i);
     60c:	f8 01       	movw	r30, r16
     60e:	e8 0f       	add	r30, r24
     610:	f9 1f       	adc	r31, r25
     612:	20 81       	ld	r18, Z
     614:	fc 01       	movw	r30, r24
     616:	ec 5c       	subi	r30, 0xCC	; 204
     618:	fe 4f       	sbci	r31, 0xFE	; 254
     61a:	20 83       	st	Z, r18
		
	door_len = strlen(ptr_door);
	state_len = strlen(ptr_state);

	if(door_len > 0) {
		for (int i = 0; i <= door_len; i++)
     61c:	01 96       	adiw	r24, 0x01	; 1
     61e:	02 c0       	rjmp	.+4      	; 0x624 <parsing+0xce>
     620:	80 e0       	ldi	r24, 0x00	; 0
     622:	90 e0       	ldi	r25, 0x00	; 0
     624:	68 17       	cp	r22, r24
     626:	79 07       	cpc	r23, r25
     628:	8c f7       	brge	.-30     	; 0x60c <parsing+0xb6>
		door[i] = *(ptr_door + i);
	}
		
	if(state_len > 0) {
     62a:	14 16       	cp	r1, r20
     62c:	15 06       	cpc	r1, r21
     62e:	5c f0       	brlt	.+22     	; 0x646 <parsing+0xf0>
     630:	0f c0       	rjmp	.+30     	; 0x650 <parsing+0xfa>
		for (int i = 0; i <= state_len; i++)
		state_char[i] = *(ptr_state + i);
     632:	fd 01       	movw	r30, r26
     634:	e8 0f       	add	r30, r24
     636:	f9 1f       	adc	r31, r25
     638:	20 81       	ld	r18, Z
     63a:	fc 01       	movw	r30, r24
     63c:	e6 5d       	subi	r30, 0xD6	; 214
     63e:	fe 4f       	sbci	r31, 0xFE	; 254
     640:	20 83       	st	Z, r18
		for (int i = 0; i <= door_len; i++)
		door[i] = *(ptr_door + i);
	}
		
	if(state_len > 0) {
		for (int i = 0; i <= state_len; i++)
     642:	01 96       	adiw	r24, 0x01	; 1
     644:	02 c0       	rjmp	.+4      	; 0x64a <parsing+0xf4>
     646:	80 e0       	ldi	r24, 0x00	; 0
     648:	90 e0       	ldi	r25, 0x00	; 0
     64a:	48 17       	cp	r20, r24
     64c:	59 07       	cpc	r21, r25
     64e:	8c f7       	brge	.-30     	; 0x632 <parsing+0xdc>
		state_char[i] = *(ptr_state + i);
	}
	state = atoi(state_char);
     650:	8a e2       	ldi	r24, 0x2A	; 42
     652:	91 e0       	ldi	r25, 0x01	; 1
     654:	62 d3       	rcall	.+1732   	; 0xd1a <atoi>
     656:	6c 01       	movw	r12, r24
		
		
	sprintf(ssparsing, "%s,%d\n", door, state);
     658:	df 92       	push	r13
     65a:	8f 93       	push	r24
     65c:	84 e3       	ldi	r24, 0x34	; 52
     65e:	91 e0       	ldi	r25, 0x01	; 1
     660:	9f 93       	push	r25
     662:	8f 93       	push	r24
     664:	84 e0       	ldi	r24, 0x04	; 4
     666:	91 e0       	ldi	r25, 0x01	; 1
     668:	9f 93       	push	r25
     66a:	8f 93       	push	r24
     66c:	ce 01       	movw	r24, r28
     66e:	09 96       	adiw	r24, 0x09	; 9
     670:	9f 93       	push	r25
     672:	8f 93       	push	r24
     674:	aa d3       	rcall	.+1876   	; 0xdca <sprintf>
		
	i = 0;
		
	while(ssparsing[i] != '\0')
     676:	0f b6       	in	r0, 0x3f	; 63
     678:	f8 94       	cli
     67a:	de bf       	out	0x3e, r29	; 62
     67c:	0f be       	out	0x3f, r0	; 63
	state = atoi(state_char);
		
		
	sprintf(ssparsing, "%s,%d\n", door, state);
		
	i = 0;
     67e:	cd bf       	out	0x3d, r28	; 61
     680:	00 e0       	ldi	r16, 0x00	; 0
		
	while(ssparsing[i] != '\0')
     682:	10 e0       	ldi	r17, 0x00	; 0
	{
		UART0_transmit(ssparsing[i]);
     684:	03 c0       	rjmp	.+6      	; 0x68c <parsing+0x136>
     686:	b3 d0       	rcall	.+358    	; 0x7ee <UART0_transmit>
		i++;
     688:	0f 5f       	subi	r16, 0xFF	; 255
     68a:	1f 4f       	sbci	r17, 0xFF	; 255
		
	sprintf(ssparsing, "%s,%d\n", door, state);
		
	i = 0;
		
	while(ssparsing[i] != '\0')
     68c:	e9 e0       	ldi	r30, 0x09	; 9
     68e:	f0 e0       	ldi	r31, 0x00	; 0
     690:	ec 0f       	add	r30, r28
     692:	fd 1f       	adc	r31, r29
     694:	e0 0f       	add	r30, r16
     696:	f1 1f       	adc	r31, r17
     698:	80 81       	ld	r24, Z
     69a:	81 11       	cpse	r24, r1
     69c:	f4 cf       	rjmp	.-24     	; 0x686 <parsing+0x130>
     69e:	80 e0       	ldi	r24, 0x00	; 0
     6a0:	90 e0       	ldi	r25, 0x00	; 0
     6a2:	05 c0       	rjmp	.+10     	; 0x6ae <parsing+0x158>
		UART0_transmit(ssparsing[i]);
		i++;
	}
		
	for(i = 0; i <= str_len; i++)
	buff[i] = 0;
     6a4:	fc 01       	movw	r30, r24
     6a6:	ee 5b       	subi	r30, 0xBE	; 190
     6a8:	fe 4f       	sbci	r31, 0xFE	; 254
     6aa:	10 82       	st	Z, r1
	{
		UART0_transmit(ssparsing[i]);
		i++;
	}
		
	for(i = 0; i <= str_len; i++)
     6ac:	01 96       	adiw	r24, 0x01	; 1
     6ae:	e8 16       	cp	r14, r24
     6b0:	f9 06       	cpc	r15, r25
     6b2:	c4 f7       	brge	.-16     	; 0x6a4 <parsing+0x14e>
	buff[i] = 0;
	flag = 0;
     6b4:	10 92 3f 01 	sts	0x013F, r1	; 0x80013f <flag+0x1>
     6b8:	10 92 3e 01 	sts	0x013E, r1	; 0x80013e <flag>
	if(state == 0)
     6bc:	c1 14       	cp	r12, r1
     6be:	d1 04       	cpc	r13, r1
	{
		if(!strcmp(door, "close")) // close, 0
     6c0:	79 f4       	brne	.+30     	; 0x6e0 <parsing+0x18a>
     6c2:	6b e0       	ldi	r22, 0x0B	; 11
     6c4:	71 e0       	ldi	r23, 0x01	; 1
     6c6:	84 e3       	ldi	r24, 0x34	; 52
     6c8:	91 e0       	ldi	r25, 0x01	; 1
     6ca:	47 d3       	rcall	.+1678   	; 0xd5a <strcmp>
     6cc:	89 2b       	or	r24, r25
			return 1;
		else if(!strcmp(door, "open")) //open, 0
     6ce:	79 f0       	breq	.+30     	; 0x6ee <parsing+0x198>
     6d0:	61 e1       	ldi	r22, 0x11	; 17
     6d2:	71 e0       	ldi	r23, 0x01	; 1
     6d4:	84 e3       	ldi	r24, 0x34	; 52
     6d6:	91 e0       	ldi	r25, 0x01	; 1
     6d8:	40 d3       	rcall	.+1664   	; 0xd5a <strcmp>
     6da:	89 2b       	or	r24, r25
     6dc:	59 f0       	breq	.+22     	; 0x6f4 <parsing+0x19e>
     6de:	06 c0       	rjmp	.+12     	; 0x6ec <parsing+0x196>
			return 2; 
	}
	else if(state == 1)
     6e0:	ca 94       	dec	r12
     6e2:	cd 28       	or	r12, r13
     6e4:	51 f4       	brne	.+20     	; 0x6fa <parsing+0x1a4>
		return 3;
     6e6:	83 e0       	ldi	r24, 0x03	; 3
     6e8:	90 e0       	ldi	r25, 0x00	; 0
     6ea:	09 c0       	rjmp	.+18     	; 0x6fe <parsing+0x1a8>
	return 2;
	else if(!(strcmp(door, "open")) && state == 1)
	return 3;
	*/
	
     6ec:	08 c0       	rjmp	.+16     	; 0x6fe <parsing+0x1a8>
	buff[i] = 0;
	flag = 0;
	if(state == 0)
	{
		if(!strcmp(door, "close")) // close, 0
			return 1;
     6ee:	81 e0       	ldi	r24, 0x01	; 1
     6f0:	90 e0       	ldi	r25, 0x00	; 0
     6f2:	05 c0       	rjmp	.+10     	; 0x6fe <parsing+0x1a8>
		else if(!strcmp(door, "open")) //open, 0
			return 2; 
     6f4:	82 e0       	ldi	r24, 0x02	; 2
     6f6:	90 e0       	ldi	r25, 0x00	; 0
     6f8:	02 c0       	rjmp	.+4      	; 0x6fe <parsing+0x1a8>
	}
	else if(state == 1)
		return 3;
	else
		return 0;
     6fa:	80 e0       	ldi	r24, 0x00	; 0
     6fc:	90 e0       	ldi	r25, 0x00	; 0
	return 2;
	else if(!(strcmp(door, "open")) && state == 1)
	return 3;
	*/
	
     6fe:	a6 96       	adiw	r28, 0x26	; 38
     700:	0f b6       	in	r0, 0x3f	; 63
     702:	f8 94       	cli
     704:	de bf       	out	0x3e, r29	; 62
     706:	0f be       	out	0x3f, r0	; 63
     708:	cd bf       	out	0x3d, r28	; 61
     70a:	df 91       	pop	r29
     70c:	cf 91       	pop	r28
     70e:	1f 91       	pop	r17
     710:	0f 91       	pop	r16
     712:	ff 90       	pop	r15
     714:	ef 90       	pop	r14
     716:	df 90       	pop	r13
     718:	cf 90       	pop	r12
     71a:	08 95       	ret

0000071c <main>:
}


int main(void)
{
	UART_INIT();
     71c:	6c d0       	rcall	.+216    	; 0x7f6 <UART_INIT>
	I2C_Init();
     71e:	e2 dc       	rcall	.-1596   	; 0xe4 <I2C_Init>
	adcinit();
     720:	6b de       	rcall	.-810    	; 0x3f8 <adcinit>
	LCDInit(0x02);
     722:	82 e0       	ldi	r24, 0x02	; 2
     724:	24 de       	rcall	.-952    	; 0x36e <LCDInit>
	Timer1Init();
     726:	7f de       	rcall	.-770    	; 0x426 <Timer1Init>
     728:	91 de       	rcall	.-734    	; 0x44c <LEDInit>
	LEDInit();
     72a:	78 94       	sei
	sei();
     72c:	f4 d0       	rcall	.+488    	; 0x916 <readHumidity>
	
	int Emer_value = 0;
	
	while (1)
	{
		humi = readHumidity();
     72e:	4b 01       	movw	r8, r22
     730:	5c 01       	movw	r10, r24
     732:	1b d1       	rcall	.+566    	; 0x96a <readTemperature>
		temp = readTemperature();
     734:	6b 01       	movw	r12, r22
     736:	7c 01       	movw	r14, r24
     738:	80 e0       	ldi	r24, 0x00	; 0
     73a:	6a de       	rcall	.-812    	; 0x410 <readAdc>
		ppm = readAdc(0);
     73c:	8c 01       	movw	r16, r24
     73e:	80 91 3e 01 	lds	r24, 0x013E	; 0x80013e <flag>
		
		
		if(flag == 1)
     742:	90 91 3f 01 	lds	r25, 0x013F	; 0x80013f <flag+0x1>
     746:	01 97       	sbiw	r24, 0x01	; 1
     748:	91 f4       	brne	.+36     	; 0x76e <main+0x52>
     74a:	05 df       	rcall	.-502    	; 0x556 <parsing>
		{
			ret = parsing();
     74c:	ec 01       	movw	r28, r24
     74e:	81 30       	cpi	r24, 0x01	; 1
     750:	91 05       	cpc	r25, r1
			if(ret == 1)
     752:	19 f4       	brne	.+6      	; 0x75a <main+0x3e>
     754:	81 e6       	ldi	r24, 0x61	; 97
			UART0_transmit('a');
     756:	4b d0       	rcall	.+150    	; 0x7ee <UART0_transmit>
     758:	0a c0       	rjmp	.+20     	; 0x76e <main+0x52>
     75a:	82 30       	cpi	r24, 0x02	; 2
			else if(ret == 2)
     75c:	91 05       	cpc	r25, r1
     75e:	19 f4       	brne	.+6      	; 0x766 <main+0x4a>
			UART0_transmit('b');
     760:	82 e6       	ldi	r24, 0x62	; 98
     762:	45 d0       	rcall	.+138    	; 0x7ee <UART0_transmit>
     764:	04 c0       	rjmp	.+8      	; 0x76e <main+0x52>
			else if(ret == 3)
     766:	03 97       	sbiw	r24, 0x03	; 3
			UART0_transmit('c');
     768:	11 f4       	brne	.+4      	; 0x76e <main+0x52>
     76a:	83 e6       	ldi	r24, 0x63	; 99
     76c:	40 d0       	rcall	.+128    	; 0x7ee <UART0_transmit>
			//if(ppm > 10)
			//{
			//	UART1_transmit('E');
			//}
		}
		UART0_transmit('\n');
     76e:	8a e0       	ldi	r24, 0x0A	; 10
		if(ret==1)
     770:	3e d0       	rcall	.+124    	; 0x7ee <UART0_transmit>
     772:	c1 30       	cpi	r28, 0x01	; 1
			Servo_Off();
     774:	d1 05       	cpc	r29, r1
     776:	09 f4       	brne	.+2      	; 0x77a <main+0x5e>
		if(ret == 2)
     778:	9f de       	rcall	.-706    	; 0x4b8 <Servo_Off>
     77a:	c2 30       	cpi	r28, 0x02	; 2
			Servo_On();
     77c:	d1 05       	cpc	r29, r1
		if(ret ==3)
     77e:	09 f4       	brne	.+2      	; 0x782 <main+0x66>
     780:	8d de       	rcall	.-742    	; 0x49c <Servo_On>
		{
			Servo_On();
     782:	c3 30       	cpi	r28, 0x03	; 3
     784:	d1 05       	cpc	r29, r1
			LED_Toggle();
     786:	11 f4       	brne	.+4      	; 0x78c <main+0x70>
		}
		
		//sprintf(ValueString, "humi : %d , temp : %d , PPM : %d \n", (int)humi, (int)temp, ppm);
		//UART0_printString(ValueString);
		
		LCD_Clear();
     788:	89 de       	rcall	.-750    	; 0x49c <Servo_On>
     78a:	69 de       	rcall	.-814    	; 0x45e <LED_Toggle>
		LCDWriteStringXY(0,0,"humi:");
     78c:	31 de       	rcall	.-926    	; 0x3f0 <LCD_Clear>
     78e:	60 e0       	ldi	r22, 0x00	; 0
     790:	80 e0       	ldi	r24, 0x00	; 0
     792:	e4 dd       	rcall	.-1080   	; 0x35c <LCDGotoXY>
     794:	86 e1       	ldi	r24, 0x16	; 22
     796:	91 e0       	ldi	r25, 0x01	; 1
		LCDWriteIntXY(5,0,(int)humi,2);
     798:	5c dd       	rcall	.-1352   	; 0x252 <LCDWriteString>
     79a:	60 e0       	ldi	r22, 0x00	; 0
     79c:	85 e0       	ldi	r24, 0x05	; 5
     79e:	de dd       	rcall	.-1092   	; 0x35c <LCDGotoXY>
     7a0:	c5 01       	movw	r24, r10
     7a2:	b4 01       	movw	r22, r8
     7a4:	71 d1       	rcall	.+738    	; 0xa88 <__fixsfsi>
     7a6:	dc 01       	movw	r26, r24
     7a8:	cb 01       	movw	r24, r22
     7aa:	62 e0       	ldi	r22, 0x02	; 2
     7ac:	70 e0       	ldi	r23, 0x00	; 0
		LCDWriteStringXY(9,0,"temp:");
     7ae:	77 dd       	rcall	.-1298   	; 0x29e <LCDWriteInt>
     7b0:	60 e0       	ldi	r22, 0x00	; 0
     7b2:	89 e0       	ldi	r24, 0x09	; 9
     7b4:	d3 dd       	rcall	.-1114   	; 0x35c <LCDGotoXY>
     7b6:	8c e1       	ldi	r24, 0x1C	; 28
     7b8:	91 e0       	ldi	r25, 0x01	; 1
		LCDWriteIntXY(14,0,(int)temp,2);
     7ba:	4b dd       	rcall	.-1386   	; 0x252 <LCDWriteString>
     7bc:	60 e0       	ldi	r22, 0x00	; 0
     7be:	8e e0       	ldi	r24, 0x0E	; 14
     7c0:	cd dd       	rcall	.-1126   	; 0x35c <LCDGotoXY>
     7c2:	c7 01       	movw	r24, r14
     7c4:	b6 01       	movw	r22, r12
     7c6:	60 d1       	rcall	.+704    	; 0xa88 <__fixsfsi>
     7c8:	dc 01       	movw	r26, r24
     7ca:	cb 01       	movw	r24, r22
     7cc:	62 e0       	ldi	r22, 0x02	; 2
     7ce:	70 e0       	ldi	r23, 0x00	; 0
     7d0:	66 dd       	rcall	.-1332   	; 0x29e <LCDWriteInt>
     7d2:	61 e0       	ldi	r22, 0x01	; 1
     7d4:	80 e0       	ldi	r24, 0x00	; 0
		LCDWriteStringXY(0,1,"ppm:");
     7d6:	c2 dd       	rcall	.-1148   	; 0x35c <LCDGotoXY>
     7d8:	82 e2       	ldi	r24, 0x22	; 34
     7da:	91 e0       	ldi	r25, 0x01	; 1
     7dc:	3a dd       	rcall	.-1420   	; 0x252 <LCDWriteString>
     7de:	61 e0       	ldi	r22, 0x01	; 1
     7e0:	84 e0       	ldi	r24, 0x04	; 4
     7e2:	bc dd       	rcall	.-1160   	; 0x35c <LCDGotoXY>
     7e4:	62 e0       	ldi	r22, 0x02	; 2
		LCDWriteIntXY(4,1,ppm,2);
     7e6:	70 e0       	ldi	r23, 0x00	; 0
     7e8:	c8 01       	movw	r24, r16
     7ea:	59 dd       	rcall	.-1358   	; 0x29e <LCDWriteInt>
     7ec:	9f cf       	rjmp	.-194    	; 0x72c <main+0x10>

000007ee <UART0_transmit>:
     7ee:	5d 9b       	sbis	0x0b, 5	; 11
     7f0:	fe cf       	rjmp	.-4      	; 0x7ee <UART0_transmit>
     7f2:	8c b9       	out	0x0c, r24	; 12
     7f4:	08 95       	ret

000007f6 <UART_INIT>:
     7f6:	9f ef       	ldi	r25, 0xFF	; 255
		
		//LED_Toggle();
		

	}
     7f8:	92 b9       	out	0x02, r25	; 2
}

void UART_INIT(void)
{
	DDRE = 0xFF;
	UCSR0B = (1<<RXEN0) | (1<<TXEN0);
     7fa:	88 e1       	ldi	r24, 0x18	; 24
     7fc:	8a b9       	out	0x0a, r24	; 10
	//UCSR0C = 0x06;
	UBRR0L = 95;	//baudrate
     7fe:	8f e5       	ldi	r24, 0x5F	; 95
     800:	89 b9       	out	0x09, r24	; 9
	
	DDRD = 0xFF;
     802:	91 bb       	out	0x11, r25	; 17
	UCSR1B = (1<<RXEN0) | (1<<TXEN0) | (1 << RXCIE1);
     804:	98 e9       	ldi	r25, 0x98	; 152
     806:	90 93 9a 00 	sts	0x009A, r25	; 0x80009a <__TEXT_REGION_LENGTH__+0x7e009a>
	UBRR1L = 95;
     80a:	80 93 99 00 	sts	0x0099, r24	; 0x800099 <__TEXT_REGION_LENGTH__+0x7e0099>
     80e:	08 95       	ret

00000810 <checkCRC>:
#include "sht20.h"

uint8_t checkCRC(uint16_t message_from_sensor, uint8_t check_value_from_sensor)
{
     810:	8f 92       	push	r8
     812:	9f 92       	push	r9
     814:	af 92       	push	r10
     816:	bf 92       	push	r11
     818:	cf 92       	push	r12
     81a:	df 92       	push	r13
     81c:	ef 92       	push	r14
     81e:	ff 92       	push	r15
	uint32_t remainder = (uint32_t)message_from_sensor << 8;
     820:	a0 e0       	ldi	r26, 0x00	; 0
     822:	b0 e0       	ldi	r27, 0x00	; 0
     824:	ba 2f       	mov	r27, r26
     826:	a9 2f       	mov	r26, r25
     828:	98 2f       	mov	r25, r24
     82a:	88 27       	eor	r24, r24
	remainder |= check_value_from_sensor;
     82c:	86 2b       	or	r24, r22
	uint32_t divsor = (uint32_t)SHIFTED_DIVISOR;
	for(int i = 0 ; i < 16 ; i++){
     82e:	20 e0       	ldi	r18, 0x00	; 0
     830:	30 e0       	ldi	r19, 0x00	; 0

uint8_t checkCRC(uint16_t message_from_sensor, uint8_t check_value_from_sensor)
{
	uint32_t remainder = (uint32_t)message_from_sensor << 8;
	remainder |= check_value_from_sensor;
	uint32_t divsor = (uint32_t)SHIFTED_DIVISOR;
     832:	0f 2e       	mov	r0, r31
     834:	c1 2c       	mov	r12, r1
     836:	f0 e8       	ldi	r31, 0x80	; 128
     838:	df 2e       	mov	r13, r31
     83a:	f8 e9       	ldi	r31, 0x98	; 152
     83c:	ef 2e       	mov	r14, r31
     83e:	f1 2c       	mov	r15, r1
     840:	f0 2d       	mov	r31, r0
	for(int i = 0 ; i < 16 ; i++){
     842:	19 c0       	rjmp	.+50     	; 0x876 <checkCRC+0x66>
		if(remainder & (uint32_t)1 << (23 - i)){
     844:	47 e1       	ldi	r20, 0x17	; 23
     846:	50 e0       	ldi	r21, 0x00	; 0
     848:	42 1b       	sub	r20, r18
     84a:	53 0b       	sbc	r21, r19
     84c:	4c 01       	movw	r8, r24
     84e:	5d 01       	movw	r10, r26
     850:	04 c0       	rjmp	.+8      	; 0x85a <checkCRC+0x4a>
     852:	b6 94       	lsr	r11
     854:	a7 94       	ror	r10
     856:	97 94       	ror	r9
     858:	87 94       	ror	r8
     85a:	4a 95       	dec	r20
     85c:	d2 f7       	brpl	.-12     	; 0x852 <checkCRC+0x42>
     85e:	80 fe       	sbrs	r8, 0
     860:	04 c0       	rjmp	.+8      	; 0x86a <checkCRC+0x5a>
			remainder ^= divsor;
     862:	8c 25       	eor	r24, r12
     864:	9d 25       	eor	r25, r13
     866:	ae 25       	eor	r26, r14
     868:	bf 25       	eor	r27, r15
		}
		divsor >>= 1;
     86a:	f6 94       	lsr	r15
     86c:	e7 94       	ror	r14
     86e:	d7 94       	ror	r13
     870:	c7 94       	ror	r12
uint8_t checkCRC(uint16_t message_from_sensor, uint8_t check_value_from_sensor)
{
	uint32_t remainder = (uint32_t)message_from_sensor << 8;
	remainder |= check_value_from_sensor;
	uint32_t divsor = (uint32_t)SHIFTED_DIVISOR;
	for(int i = 0 ; i < 16 ; i++){
     872:	2f 5f       	subi	r18, 0xFF	; 255
     874:	3f 4f       	sbci	r19, 0xFF	; 255
     876:	20 31       	cpi	r18, 0x10	; 16
     878:	31 05       	cpc	r19, r1
     87a:	24 f3       	brlt	.-56     	; 0x844 <checkCRC+0x34>
			remainder ^= divsor;
		}
		divsor >>= 1;
	}
	return (uint8_t)remainder;
}
     87c:	ff 90       	pop	r15
     87e:	ef 90       	pop	r14
     880:	df 90       	pop	r13
     882:	cf 90       	pop	r12
     884:	bf 90       	pop	r11
     886:	af 90       	pop	r10
     888:	9f 90       	pop	r9
     88a:	8f 90       	pop	r8
     88c:	08 95       	ret

0000088e <readValue>:

uint16_t readValue(unsigned char cmd)
{
     88e:	1f 93       	push	r17
     890:	cf 93       	push	r28
     892:	df 93       	push	r29
     894:	c8 2f       	mov	r28, r24
	unsigned char toRead;
	unsigned char counter;
	unsigned char msb, lsb, checksum;
	uint16_t rawValue;
	
	I2C_Start();
     896:	2f dc       	rcall	.-1954   	; 0xf6 <I2C_Start>
	I2C_Write_SLAW(SLAVE_ADDRESS);
     898:	80 e8       	ldi	r24, 0x80	; 128
     89a:	90 e0       	ldi	r25, 0x00	; 0
     89c:	38 dc       	rcall	.-1936   	; 0x10e <I2C_Write_SLAW>
	I2C_Write(cmd);
     89e:	8c 2f       	mov	r24, r28
     8a0:	47 dc       	rcall	.-1906   	; 0x130 <I2C_Write>
     8a2:	26 e0       	ldi	r18, 0x06	; 6
	#else
		//round up by default
		__ticks_dc = (uint32_t)(ceil(fabs(__tmp)));
	#endif

	__builtin_avr_delay_cycles(__ticks_dc);
     8a4:	2a 95       	dec	r18
     8a6:	f1 f7       	brne	.-4      	; 0x8a4 <readValue+0x16>
     8a8:	00 c0       	rjmp	.+0      	; 0x8aa <readValue+0x1c>
	_delay_us(20);
	I2C_Stop();
     8aa:	2d dc       	rcall	.-1958   	; 0x106 <I2C_Stop>
     8ac:	c0 e0       	ldi	r28, 0x00	; 0
	
	for(counter =0; counter < MAX_COUNTER ; counter++)
     8ae:	10 c0       	rjmp	.+32     	; 0x8d0 <readValue+0x42>
     8b0:	87 ea       	ldi	r24, 0xA7	; 167
	#else
		//round up by default
		__ticks_dc = (uint32_t)(ceil(fabs(__tmp)));
	#endif

	__builtin_avr_delay_cycles(__ticks_dc);
     8b2:	91 e6       	ldi	r25, 0x61	; 97
     8b4:	01 97       	sbiw	r24, 0x01	; 1
     8b6:	f1 f7       	brne	.-4      	; 0x8b4 <readValue+0x26>
     8b8:	00 c0       	rjmp	.+0      	; 0x8ba <readValue+0x2c>
     8ba:	00 00       	nop
	{
		_delay_ms(DELAY_INTERVAL);
		I2C_Start();
     8bc:	1c dc       	rcall	.-1992   	; 0xf6 <I2C_Start>
     8be:	80 e8       	ldi	r24, 0x80	; 128
		toRead = I2C_Write_SLAR(SLAVE_ADDRESS);
     8c0:	90 e0       	ldi	r25, 0x00	; 0
     8c2:	2d dc       	rcall	.-1958   	; 0x11e <I2C_Write_SLAR>
     8c4:	88 23       	and	r24, r24
		if(toRead == 0)
     8c6:	31 f0       	breq	.+12     	; 0x8d4 <readValue+0x46>
     8c8:	81 30       	cpi	r24, 0x01	; 1
		break;
		else if(toRead ==1)
     8ca:	09 f4       	brne	.+2      	; 0x8ce <readValue+0x40>
     8cc:	1c dc       	rcall	.-1992   	; 0x106 <I2C_Stop>
		I2C_Stop();
     8ce:	cf 5f       	subi	r28, 0xFF	; 255
	I2C_Write_SLAW(SLAVE_ADDRESS);
	I2C_Write(cmd);
	_delay_us(20);
	I2C_Stop();
	
	for(counter =0; counter < MAX_COUNTER ; counter++)
     8d0:	c4 36       	cpi	r28, 0x64	; 100
		if(toRead == 0)
		break;
		else if(toRead ==1)
		I2C_Stop();
	}
	if(counter == MAX_COUNTER)
     8d2:	70 f3       	brcs	.-36     	; 0x8b0 <readValue+0x22>
	{
		return ERROR_I2C_TIMEOUT;
	}
	
	msb = I2C_Read();
     8d4:	c4 36       	cpi	r28, 0x64	; 100
     8d6:	b1 f0       	breq	.+44     	; 0x904 <readValue+0x76>
     8d8:	33 dc       	rcall	.-1946   	; 0x140 <I2C_Read>
	lsb = I2C_Read();
     8da:	c8 2f       	mov	r28, r24
     8dc:	31 dc       	rcall	.-1950   	; 0x140 <I2C_Read>
     8de:	d8 2f       	mov	r29, r24
	checksum = I2C_Read();
     8e0:	2f dc       	rcall	.-1954   	; 0x140 <I2C_Read>
     8e2:	18 2f       	mov	r17, r24
     8e4:	10 dc       	rcall	.-2016   	; 0x106 <I2C_Stop>
	I2C_Stop();
     8e6:	8c 2f       	mov	r24, r28
	rawValue = ((uint16_t) msb << 8) | (uint16_t) lsb;
     8e8:	90 e0       	ldi	r25, 0x00	; 0
     8ea:	98 2f       	mov	r25, r24
     8ec:	88 27       	eor	r24, r24
     8ee:	9c 01       	movw	r18, r24
     8f0:	2d 2b       	or	r18, r29
     8f2:	e9 01       	movw	r28, r18
     8f4:	61 2f       	mov	r22, r17
	
	if(checkCRC(rawValue, checksum) != 0){
     8f6:	ce 01       	movw	r24, r28
     8f8:	8b df       	rcall	.-234    	; 0x810 <checkCRC>
     8fa:	81 11       	cpse	r24, r1
     8fc:	06 c0       	rjmp	.+12     	; 0x90a <readValue+0x7c>
     8fe:	ce 01       	movw	r24, r28
     900:	8c 7f       	andi	r24, 0xFC	; 252
		return ERROR_BAD_CRC;
	}
	
	return (rawValue& 0xFFFC);
     902:	05 c0       	rjmp	.+10     	; 0x90e <readValue+0x80>
     904:	86 ee       	ldi	r24, 0xE6	; 230
     906:	93 e0       	ldi	r25, 0x03	; 3
		else if(toRead ==1)
		I2C_Stop();
	}
	if(counter == MAX_COUNTER)
	{
		return ERROR_I2C_TIMEOUT;
     908:	02 c0       	rjmp	.+4      	; 0x90e <readValue+0x80>
     90a:	87 ee       	ldi	r24, 0xE7	; 231
     90c:	93 e0       	ldi	r25, 0x03	; 3
	checksum = I2C_Read();
	I2C_Stop();
	rawValue = ((uint16_t) msb << 8) | (uint16_t) lsb;
	
	if(checkCRC(rawValue, checksum) != 0){
		return ERROR_BAD_CRC;
     90e:	df 91       	pop	r29
     910:	cf 91       	pop	r28
	}
	
	return (rawValue& 0xFFFC);
}
     912:	1f 91       	pop	r17
     914:	08 95       	ret

00000916 <readHumidity>:
     916:	85 ef       	ldi	r24, 0xF5	; 245
     918:	ba df       	rcall	.-140    	; 0x88e <readValue>
float readHumidity(void)
{
	float temp;
	float rh;

	uint16_t rawHumidity = readValue(TRIGGER_HUMD_MEASURE_NOHOLD);
     91a:	bc 01       	movw	r22, r24
	if(rawHumidity == ERROR_I2C_TIMEOUT || rawHumidity == ERROR_BAD_CRC){
     91c:	86 5e       	subi	r24, 0xE6	; 230
     91e:	93 40       	sbci	r25, 0x03	; 3
     920:	02 97       	sbiw	r24, 0x02	; 2
     922:	40 f4       	brcc	.+16     	; 0x934 <readHumidity+0x1e>
		return(rawHumidity);
     924:	80 e0       	ldi	r24, 0x00	; 0
     926:	90 e0       	ldi	r25, 0x00	; 0
     928:	e0 d0       	rcall	.+448    	; 0xaea <__floatunsisf>
     92a:	56 2f       	mov	r21, r22
     92c:	47 2f       	mov	r20, r23
     92e:	38 2f       	mov	r19, r24
     930:	29 2f       	mov	r18, r25
     932:	16 c0       	rjmp	.+44     	; 0x960 <readHumidity+0x4a>
	}
	temp = rawHumidity / 65536.0;
     934:	80 e0       	ldi	r24, 0x00	; 0
     936:	90 e0       	ldi	r25, 0x00	; 0
     938:	d8 d0       	rcall	.+432    	; 0xaea <__floatunsisf>
     93a:	20 e0       	ldi	r18, 0x00	; 0
     93c:	30 e0       	ldi	r19, 0x00	; 0
     93e:	40 e8       	ldi	r20, 0x80	; 128
     940:	57 e3       	ldi	r21, 0x37	; 55
     942:	61 d1       	rcall	.+706    	; 0xc06 <__mulsf3>
	temp = temp * 125.0;
     944:	20 e0       	ldi	r18, 0x00	; 0
     946:	30 e0       	ldi	r19, 0x00	; 0
     948:	4a ef       	ldi	r20, 0xFA	; 250
     94a:	52 e4       	ldi	r21, 0x42	; 66
     94c:	5c d1       	rcall	.+696    	; 0xc06 <__mulsf3>
	rh = temp - 6.0;
     94e:	20 e0       	ldi	r18, 0x00	; 0
     950:	30 e0       	ldi	r19, 0x00	; 0
     952:	40 ec       	ldi	r20, 0xC0	; 192
     954:	50 e4       	ldi	r21, 0x40	; 64
     956:	33 d0       	rcall	.+102    	; 0x9be <__subsf3>
     958:	56 2f       	mov	r21, r22

	return rh;
     95a:	47 2f       	mov	r20, r23
     95c:	38 2f       	mov	r19, r24
     95e:	29 2f       	mov	r18, r25
     960:	65 2f       	mov	r22, r21
}
     962:	74 2f       	mov	r23, r20
     964:	83 2f       	mov	r24, r19
     966:	92 2f       	mov	r25, r18
     968:	08 95       	ret

0000096a <readTemperature>:
     96a:	83 ef       	ldi	r24, 0xF3	; 243
float readTemperature(void)
{
	float temp;
	float realTemperature;
	
	uint16_t rawTemperature = readValue(TRIGGER_TEMP_MEASURE_NOHOLD);
     96c:	90 df       	rcall	.-224    	; 0x88e <readValue>
     96e:	bc 01       	movw	r22, r24
	if(rawTemperature == ERROR_I2C_TIMEOUT || rawTemperature == ERROR_BAD_CRC){
     970:	86 5e       	subi	r24, 0xE6	; 230
     972:	93 40       	sbci	r25, 0x03	; 3
     974:	02 97       	sbiw	r24, 0x02	; 2
     976:	40 f4       	brcc	.+16     	; 0x988 <readTemperature+0x1e>
		return(rawTemperature);
     978:	80 e0       	ldi	r24, 0x00	; 0
     97a:	90 e0       	ldi	r25, 0x00	; 0
     97c:	b6 d0       	rcall	.+364    	; 0xaea <__floatunsisf>
     97e:	56 2f       	mov	r21, r22
     980:	47 2f       	mov	r20, r23
     982:	38 2f       	mov	r19, r24
     984:	29 2f       	mov	r18, r25
     986:	16 c0       	rjmp	.+44     	; 0x9b4 <readTemperature+0x4a>
	}
	temp = rawTemperature / 65536.0;
     988:	80 e0       	ldi	r24, 0x00	; 0
     98a:	90 e0       	ldi	r25, 0x00	; 0
     98c:	ae d0       	rcall	.+348    	; 0xaea <__floatunsisf>
     98e:	20 e0       	ldi	r18, 0x00	; 0
     990:	30 e0       	ldi	r19, 0x00	; 0
     992:	40 e8       	ldi	r20, 0x80	; 128
     994:	57 e3       	ldi	r21, 0x37	; 55
     996:	37 d1       	rcall	.+622    	; 0xc06 <__mulsf3>
	temp = temp * 175.72;
     998:	22 e5       	ldi	r18, 0x52	; 82
     99a:	38 eb       	ldi	r19, 0xB8	; 184
     99c:	4f e2       	ldi	r20, 0x2F	; 47
     99e:	53 e4       	ldi	r21, 0x43	; 67
     9a0:	32 d1       	rcall	.+612    	; 0xc06 <__mulsf3>
	realTemperature = temp - 46.85;
     9a2:	26 e6       	ldi	r18, 0x66	; 102
     9a4:	36 e6       	ldi	r19, 0x66	; 102
     9a6:	4b e3       	ldi	r20, 0x3B	; 59
     9a8:	52 e4       	ldi	r21, 0x42	; 66
     9aa:	09 d0       	rcall	.+18     	; 0x9be <__subsf3>
     9ac:	56 2f       	mov	r21, r22

	return realTemperature;
     9ae:	47 2f       	mov	r20, r23
     9b0:	38 2f       	mov	r19, r24
     9b2:	29 2f       	mov	r18, r25
     9b4:	65 2f       	mov	r22, r21
}
     9b6:	74 2f       	mov	r23, r20
     9b8:	83 2f       	mov	r24, r19
     9ba:	92 2f       	mov	r25, r18
     9bc:	08 95       	ret

000009be <__subsf3>:
     9be:	50 58       	subi	r21, 0x80	; 128

000009c0 <__addsf3>:
     9c0:	bb 27       	eor	r27, r27
     9c2:	aa 27       	eor	r26, r26
     9c4:	0e d0       	rcall	.+28     	; 0x9e2 <__addsf3x>
     9c6:	e5 c0       	rjmp	.+458    	; 0xb92 <__fp_round>
     9c8:	d6 d0       	rcall	.+428    	; 0xb76 <__fp_pscA>
     9ca:	30 f0       	brcs	.+12     	; 0x9d8 <__addsf3+0x18>
     9cc:	db d0       	rcall	.+438    	; 0xb84 <__fp_pscB>
     9ce:	20 f0       	brcs	.+8      	; 0x9d8 <__addsf3+0x18>
     9d0:	31 f4       	brne	.+12     	; 0x9de <__addsf3+0x1e>
     9d2:	9f 3f       	cpi	r25, 0xFF	; 255
     9d4:	11 f4       	brne	.+4      	; 0x9da <__addsf3+0x1a>
     9d6:	1e f4       	brtc	.+6      	; 0x9de <__addsf3+0x1e>
     9d8:	cb c0       	rjmp	.+406    	; 0xb70 <__fp_nan>
     9da:	0e f4       	brtc	.+2      	; 0x9de <__addsf3+0x1e>
     9dc:	e0 95       	com	r30
     9de:	e7 fb       	bst	r30, 7
     9e0:	c1 c0       	rjmp	.+386    	; 0xb64 <__fp_inf>

000009e2 <__addsf3x>:
     9e2:	e9 2f       	mov	r30, r25
     9e4:	e7 d0       	rcall	.+462    	; 0xbb4 <__fp_split3>
     9e6:	80 f3       	brcs	.-32     	; 0x9c8 <__addsf3+0x8>
     9e8:	ba 17       	cp	r27, r26
     9ea:	62 07       	cpc	r22, r18
     9ec:	73 07       	cpc	r23, r19
     9ee:	84 07       	cpc	r24, r20
     9f0:	95 07       	cpc	r25, r21
     9f2:	18 f0       	brcs	.+6      	; 0x9fa <__addsf3x+0x18>
     9f4:	71 f4       	brne	.+28     	; 0xa12 <__addsf3x+0x30>
     9f6:	9e f5       	brtc	.+102    	; 0xa5e <__addsf3x+0x7c>
     9f8:	ff c0       	rjmp	.+510    	; 0xbf8 <__fp_zero>
     9fa:	0e f4       	brtc	.+2      	; 0x9fe <__addsf3x+0x1c>
     9fc:	e0 95       	com	r30
     9fe:	0b 2e       	mov	r0, r27
     a00:	ba 2f       	mov	r27, r26
     a02:	a0 2d       	mov	r26, r0
     a04:	0b 01       	movw	r0, r22
     a06:	b9 01       	movw	r22, r18
     a08:	90 01       	movw	r18, r0
     a0a:	0c 01       	movw	r0, r24
     a0c:	ca 01       	movw	r24, r20
     a0e:	a0 01       	movw	r20, r0
     a10:	11 24       	eor	r1, r1
     a12:	ff 27       	eor	r31, r31
     a14:	59 1b       	sub	r21, r25
     a16:	99 f0       	breq	.+38     	; 0xa3e <__addsf3x+0x5c>
     a18:	59 3f       	cpi	r21, 0xF9	; 249
     a1a:	50 f4       	brcc	.+20     	; 0xa30 <__addsf3x+0x4e>
     a1c:	50 3e       	cpi	r21, 0xE0	; 224
     a1e:	68 f1       	brcs	.+90     	; 0xa7a <__addsf3x+0x98>
     a20:	1a 16       	cp	r1, r26
     a22:	f0 40       	sbci	r31, 0x00	; 0
     a24:	a2 2f       	mov	r26, r18
     a26:	23 2f       	mov	r18, r19
     a28:	34 2f       	mov	r19, r20
     a2a:	44 27       	eor	r20, r20
     a2c:	58 5f       	subi	r21, 0xF8	; 248
     a2e:	f3 cf       	rjmp	.-26     	; 0xa16 <__addsf3x+0x34>
     a30:	46 95       	lsr	r20
     a32:	37 95       	ror	r19
     a34:	27 95       	ror	r18
     a36:	a7 95       	ror	r26
     a38:	f0 40       	sbci	r31, 0x00	; 0
     a3a:	53 95       	inc	r21
     a3c:	c9 f7       	brne	.-14     	; 0xa30 <__addsf3x+0x4e>
     a3e:	7e f4       	brtc	.+30     	; 0xa5e <__addsf3x+0x7c>
     a40:	1f 16       	cp	r1, r31
     a42:	ba 0b       	sbc	r27, r26
     a44:	62 0b       	sbc	r22, r18
     a46:	73 0b       	sbc	r23, r19
     a48:	84 0b       	sbc	r24, r20
     a4a:	ba f0       	brmi	.+46     	; 0xa7a <__addsf3x+0x98>
     a4c:	91 50       	subi	r25, 0x01	; 1
     a4e:	a1 f0       	breq	.+40     	; 0xa78 <__addsf3x+0x96>
     a50:	ff 0f       	add	r31, r31
     a52:	bb 1f       	adc	r27, r27
     a54:	66 1f       	adc	r22, r22
     a56:	77 1f       	adc	r23, r23
     a58:	88 1f       	adc	r24, r24
     a5a:	c2 f7       	brpl	.-16     	; 0xa4c <__addsf3x+0x6a>
     a5c:	0e c0       	rjmp	.+28     	; 0xa7a <__addsf3x+0x98>
     a5e:	ba 0f       	add	r27, r26
     a60:	62 1f       	adc	r22, r18
     a62:	73 1f       	adc	r23, r19
     a64:	84 1f       	adc	r24, r20
     a66:	48 f4       	brcc	.+18     	; 0xa7a <__addsf3x+0x98>
     a68:	87 95       	ror	r24
     a6a:	77 95       	ror	r23
     a6c:	67 95       	ror	r22
     a6e:	b7 95       	ror	r27
     a70:	f7 95       	ror	r31
     a72:	9e 3f       	cpi	r25, 0xFE	; 254
     a74:	08 f0       	brcs	.+2      	; 0xa78 <__addsf3x+0x96>
     a76:	b3 cf       	rjmp	.-154    	; 0x9de <__addsf3+0x1e>
     a78:	93 95       	inc	r25
     a7a:	88 0f       	add	r24, r24
     a7c:	08 f0       	brcs	.+2      	; 0xa80 <__addsf3x+0x9e>
     a7e:	99 27       	eor	r25, r25
     a80:	ee 0f       	add	r30, r30
     a82:	97 95       	ror	r25
     a84:	87 95       	ror	r24
     a86:	08 95       	ret

00000a88 <__fixsfsi>:
     a88:	04 d0       	rcall	.+8      	; 0xa92 <__fixunssfsi>
     a8a:	68 94       	set
     a8c:	b1 11       	cpse	r27, r1
     a8e:	b5 c0       	rjmp	.+362    	; 0xbfa <__fp_szero>
     a90:	08 95       	ret

00000a92 <__fixunssfsi>:
     a92:	98 d0       	rcall	.+304    	; 0xbc4 <__fp_splitA>
     a94:	88 f0       	brcs	.+34     	; 0xab8 <__fixunssfsi+0x26>
     a96:	9f 57       	subi	r25, 0x7F	; 127
     a98:	90 f0       	brcs	.+36     	; 0xabe <__fixunssfsi+0x2c>
     a9a:	b9 2f       	mov	r27, r25
     a9c:	99 27       	eor	r25, r25
     a9e:	b7 51       	subi	r27, 0x17	; 23
     aa0:	a0 f0       	brcs	.+40     	; 0xaca <__fixunssfsi+0x38>
     aa2:	d1 f0       	breq	.+52     	; 0xad8 <__fixunssfsi+0x46>
     aa4:	66 0f       	add	r22, r22
     aa6:	77 1f       	adc	r23, r23
     aa8:	88 1f       	adc	r24, r24
     aaa:	99 1f       	adc	r25, r25
     aac:	1a f0       	brmi	.+6      	; 0xab4 <__fixunssfsi+0x22>
     aae:	ba 95       	dec	r27
     ab0:	c9 f7       	brne	.-14     	; 0xaa4 <__fixunssfsi+0x12>
     ab2:	12 c0       	rjmp	.+36     	; 0xad8 <__fixunssfsi+0x46>
     ab4:	b1 30       	cpi	r27, 0x01	; 1
     ab6:	81 f0       	breq	.+32     	; 0xad8 <__fixunssfsi+0x46>
     ab8:	9f d0       	rcall	.+318    	; 0xbf8 <__fp_zero>
     aba:	b1 e0       	ldi	r27, 0x01	; 1
     abc:	08 95       	ret
     abe:	9c c0       	rjmp	.+312    	; 0xbf8 <__fp_zero>
     ac0:	67 2f       	mov	r22, r23
     ac2:	78 2f       	mov	r23, r24
     ac4:	88 27       	eor	r24, r24
     ac6:	b8 5f       	subi	r27, 0xF8	; 248
     ac8:	39 f0       	breq	.+14     	; 0xad8 <__fixunssfsi+0x46>
     aca:	b9 3f       	cpi	r27, 0xF9	; 249
     acc:	cc f3       	brlt	.-14     	; 0xac0 <__fixunssfsi+0x2e>
     ace:	86 95       	lsr	r24
     ad0:	77 95       	ror	r23
     ad2:	67 95       	ror	r22
     ad4:	b3 95       	inc	r27
     ad6:	d9 f7       	brne	.-10     	; 0xace <__fixunssfsi+0x3c>
     ad8:	3e f4       	brtc	.+14     	; 0xae8 <__fixunssfsi+0x56>
     ada:	90 95       	com	r25
     adc:	80 95       	com	r24
     ade:	70 95       	com	r23
     ae0:	61 95       	neg	r22
     ae2:	7f 4f       	sbci	r23, 0xFF	; 255
     ae4:	8f 4f       	sbci	r24, 0xFF	; 255
     ae6:	9f 4f       	sbci	r25, 0xFF	; 255
     ae8:	08 95       	ret

00000aea <__floatunsisf>:
     aea:	e8 94       	clt
     aec:	09 c0       	rjmp	.+18     	; 0xb00 <__floatsisf+0x12>

00000aee <__floatsisf>:
     aee:	97 fb       	bst	r25, 7
     af0:	3e f4       	brtc	.+14     	; 0xb00 <__floatsisf+0x12>
     af2:	90 95       	com	r25
     af4:	80 95       	com	r24
     af6:	70 95       	com	r23
     af8:	61 95       	neg	r22
     afa:	7f 4f       	sbci	r23, 0xFF	; 255
     afc:	8f 4f       	sbci	r24, 0xFF	; 255
     afe:	9f 4f       	sbci	r25, 0xFF	; 255
     b00:	99 23       	and	r25, r25
     b02:	a9 f0       	breq	.+42     	; 0xb2e <__floatsisf+0x40>
     b04:	f9 2f       	mov	r31, r25
     b06:	96 e9       	ldi	r25, 0x96	; 150
     b08:	bb 27       	eor	r27, r27
     b0a:	93 95       	inc	r25
     b0c:	f6 95       	lsr	r31
     b0e:	87 95       	ror	r24
     b10:	77 95       	ror	r23
     b12:	67 95       	ror	r22
     b14:	b7 95       	ror	r27
     b16:	f1 11       	cpse	r31, r1
     b18:	f8 cf       	rjmp	.-16     	; 0xb0a <__floatsisf+0x1c>
     b1a:	fa f4       	brpl	.+62     	; 0xb5a <__floatsisf+0x6c>
     b1c:	bb 0f       	add	r27, r27
     b1e:	11 f4       	brne	.+4      	; 0xb24 <__floatsisf+0x36>
     b20:	60 ff       	sbrs	r22, 0
     b22:	1b c0       	rjmp	.+54     	; 0xb5a <__floatsisf+0x6c>
     b24:	6f 5f       	subi	r22, 0xFF	; 255
     b26:	7f 4f       	sbci	r23, 0xFF	; 255
     b28:	8f 4f       	sbci	r24, 0xFF	; 255
     b2a:	9f 4f       	sbci	r25, 0xFF	; 255
     b2c:	16 c0       	rjmp	.+44     	; 0xb5a <__floatsisf+0x6c>
     b2e:	88 23       	and	r24, r24
     b30:	11 f0       	breq	.+4      	; 0xb36 <__floatsisf+0x48>
     b32:	96 e9       	ldi	r25, 0x96	; 150
     b34:	11 c0       	rjmp	.+34     	; 0xb58 <__floatsisf+0x6a>
     b36:	77 23       	and	r23, r23
     b38:	21 f0       	breq	.+8      	; 0xb42 <__floatsisf+0x54>
     b3a:	9e e8       	ldi	r25, 0x8E	; 142
     b3c:	87 2f       	mov	r24, r23
     b3e:	76 2f       	mov	r23, r22
     b40:	05 c0       	rjmp	.+10     	; 0xb4c <__floatsisf+0x5e>
     b42:	66 23       	and	r22, r22
     b44:	71 f0       	breq	.+28     	; 0xb62 <__floatsisf+0x74>
     b46:	96 e8       	ldi	r25, 0x86	; 134
     b48:	86 2f       	mov	r24, r22
     b4a:	70 e0       	ldi	r23, 0x00	; 0
     b4c:	60 e0       	ldi	r22, 0x00	; 0
     b4e:	2a f0       	brmi	.+10     	; 0xb5a <__floatsisf+0x6c>
     b50:	9a 95       	dec	r25
     b52:	66 0f       	add	r22, r22
     b54:	77 1f       	adc	r23, r23
     b56:	88 1f       	adc	r24, r24
     b58:	da f7       	brpl	.-10     	; 0xb50 <__floatsisf+0x62>
     b5a:	88 0f       	add	r24, r24
     b5c:	96 95       	lsr	r25
     b5e:	87 95       	ror	r24
     b60:	97 f9       	bld	r25, 7
     b62:	08 95       	ret

00000b64 <__fp_inf>:
     b64:	97 f9       	bld	r25, 7
     b66:	9f 67       	ori	r25, 0x7F	; 127
     b68:	80 e8       	ldi	r24, 0x80	; 128
     b6a:	70 e0       	ldi	r23, 0x00	; 0
     b6c:	60 e0       	ldi	r22, 0x00	; 0
     b6e:	08 95       	ret

00000b70 <__fp_nan>:
     b70:	9f ef       	ldi	r25, 0xFF	; 255
     b72:	80 ec       	ldi	r24, 0xC0	; 192
     b74:	08 95       	ret

00000b76 <__fp_pscA>:
     b76:	00 24       	eor	r0, r0
     b78:	0a 94       	dec	r0
     b7a:	16 16       	cp	r1, r22
     b7c:	17 06       	cpc	r1, r23
     b7e:	18 06       	cpc	r1, r24
     b80:	09 06       	cpc	r0, r25
     b82:	08 95       	ret

00000b84 <__fp_pscB>:
     b84:	00 24       	eor	r0, r0
     b86:	0a 94       	dec	r0
     b88:	12 16       	cp	r1, r18
     b8a:	13 06       	cpc	r1, r19
     b8c:	14 06       	cpc	r1, r20
     b8e:	05 06       	cpc	r0, r21
     b90:	08 95       	ret

00000b92 <__fp_round>:
     b92:	09 2e       	mov	r0, r25
     b94:	03 94       	inc	r0
     b96:	00 0c       	add	r0, r0
     b98:	11 f4       	brne	.+4      	; 0xb9e <__fp_round+0xc>
     b9a:	88 23       	and	r24, r24
     b9c:	52 f0       	brmi	.+20     	; 0xbb2 <__fp_round+0x20>
     b9e:	bb 0f       	add	r27, r27
     ba0:	40 f4       	brcc	.+16     	; 0xbb2 <__fp_round+0x20>
     ba2:	bf 2b       	or	r27, r31
     ba4:	11 f4       	brne	.+4      	; 0xbaa <__fp_round+0x18>
     ba6:	60 ff       	sbrs	r22, 0
     ba8:	04 c0       	rjmp	.+8      	; 0xbb2 <__fp_round+0x20>
     baa:	6f 5f       	subi	r22, 0xFF	; 255
     bac:	7f 4f       	sbci	r23, 0xFF	; 255
     bae:	8f 4f       	sbci	r24, 0xFF	; 255
     bb0:	9f 4f       	sbci	r25, 0xFF	; 255
     bb2:	08 95       	ret

00000bb4 <__fp_split3>:
     bb4:	57 fd       	sbrc	r21, 7
     bb6:	90 58       	subi	r25, 0x80	; 128
     bb8:	44 0f       	add	r20, r20
     bba:	55 1f       	adc	r21, r21
     bbc:	59 f0       	breq	.+22     	; 0xbd4 <__fp_splitA+0x10>
     bbe:	5f 3f       	cpi	r21, 0xFF	; 255
     bc0:	71 f0       	breq	.+28     	; 0xbde <__fp_splitA+0x1a>
     bc2:	47 95       	ror	r20

00000bc4 <__fp_splitA>:
     bc4:	88 0f       	add	r24, r24
     bc6:	97 fb       	bst	r25, 7
     bc8:	99 1f       	adc	r25, r25
     bca:	61 f0       	breq	.+24     	; 0xbe4 <__fp_splitA+0x20>
     bcc:	9f 3f       	cpi	r25, 0xFF	; 255
     bce:	79 f0       	breq	.+30     	; 0xbee <__fp_splitA+0x2a>
     bd0:	87 95       	ror	r24
     bd2:	08 95       	ret
     bd4:	12 16       	cp	r1, r18
     bd6:	13 06       	cpc	r1, r19
     bd8:	14 06       	cpc	r1, r20
     bda:	55 1f       	adc	r21, r21
     bdc:	f2 cf       	rjmp	.-28     	; 0xbc2 <__fp_split3+0xe>
     bde:	46 95       	lsr	r20
     be0:	f1 df       	rcall	.-30     	; 0xbc4 <__fp_splitA>
     be2:	08 c0       	rjmp	.+16     	; 0xbf4 <__fp_splitA+0x30>
     be4:	16 16       	cp	r1, r22
     be6:	17 06       	cpc	r1, r23
     be8:	18 06       	cpc	r1, r24
     bea:	99 1f       	adc	r25, r25
     bec:	f1 cf       	rjmp	.-30     	; 0xbd0 <__fp_splitA+0xc>
     bee:	86 95       	lsr	r24
     bf0:	71 05       	cpc	r23, r1
     bf2:	61 05       	cpc	r22, r1
     bf4:	08 94       	sec
     bf6:	08 95       	ret

00000bf8 <__fp_zero>:
     bf8:	e8 94       	clt

00000bfa <__fp_szero>:
     bfa:	bb 27       	eor	r27, r27
     bfc:	66 27       	eor	r22, r22
     bfe:	77 27       	eor	r23, r23
     c00:	cb 01       	movw	r24, r22
     c02:	97 f9       	bld	r25, 7
     c04:	08 95       	ret

00000c06 <__mulsf3>:
     c06:	0b d0       	rcall	.+22     	; 0xc1e <__mulsf3x>
     c08:	c4 cf       	rjmp	.-120    	; 0xb92 <__fp_round>
     c0a:	b5 df       	rcall	.-150    	; 0xb76 <__fp_pscA>
     c0c:	28 f0       	brcs	.+10     	; 0xc18 <__mulsf3+0x12>
     c0e:	ba df       	rcall	.-140    	; 0xb84 <__fp_pscB>
     c10:	18 f0       	brcs	.+6      	; 0xc18 <__mulsf3+0x12>
     c12:	95 23       	and	r25, r21
     c14:	09 f0       	breq	.+2      	; 0xc18 <__mulsf3+0x12>
     c16:	a6 cf       	rjmp	.-180    	; 0xb64 <__fp_inf>
     c18:	ab cf       	rjmp	.-170    	; 0xb70 <__fp_nan>
     c1a:	11 24       	eor	r1, r1
     c1c:	ee cf       	rjmp	.-36     	; 0xbfa <__fp_szero>

00000c1e <__mulsf3x>:
     c1e:	ca df       	rcall	.-108    	; 0xbb4 <__fp_split3>
     c20:	a0 f3       	brcs	.-24     	; 0xc0a <__mulsf3+0x4>

00000c22 <__mulsf3_pse>:
     c22:	95 9f       	mul	r25, r21
     c24:	d1 f3       	breq	.-12     	; 0xc1a <__mulsf3+0x14>
     c26:	95 0f       	add	r25, r21
     c28:	50 e0       	ldi	r21, 0x00	; 0
     c2a:	55 1f       	adc	r21, r21
     c2c:	62 9f       	mul	r22, r18
     c2e:	f0 01       	movw	r30, r0
     c30:	72 9f       	mul	r23, r18
     c32:	bb 27       	eor	r27, r27
     c34:	f0 0d       	add	r31, r0
     c36:	b1 1d       	adc	r27, r1
     c38:	63 9f       	mul	r22, r19
     c3a:	aa 27       	eor	r26, r26
     c3c:	f0 0d       	add	r31, r0
     c3e:	b1 1d       	adc	r27, r1
     c40:	aa 1f       	adc	r26, r26
     c42:	64 9f       	mul	r22, r20
     c44:	66 27       	eor	r22, r22
     c46:	b0 0d       	add	r27, r0
     c48:	a1 1d       	adc	r26, r1
     c4a:	66 1f       	adc	r22, r22
     c4c:	82 9f       	mul	r24, r18
     c4e:	22 27       	eor	r18, r18
     c50:	b0 0d       	add	r27, r0
     c52:	a1 1d       	adc	r26, r1
     c54:	62 1f       	adc	r22, r18
     c56:	73 9f       	mul	r23, r19
     c58:	b0 0d       	add	r27, r0
     c5a:	a1 1d       	adc	r26, r1
     c5c:	62 1f       	adc	r22, r18
     c5e:	83 9f       	mul	r24, r19
     c60:	a0 0d       	add	r26, r0
     c62:	61 1d       	adc	r22, r1
     c64:	22 1f       	adc	r18, r18
     c66:	74 9f       	mul	r23, r20
     c68:	33 27       	eor	r19, r19
     c6a:	a0 0d       	add	r26, r0
     c6c:	61 1d       	adc	r22, r1
     c6e:	23 1f       	adc	r18, r19
     c70:	84 9f       	mul	r24, r20
     c72:	60 0d       	add	r22, r0
     c74:	21 1d       	adc	r18, r1
     c76:	82 2f       	mov	r24, r18
     c78:	76 2f       	mov	r23, r22
     c7a:	6a 2f       	mov	r22, r26
     c7c:	11 24       	eor	r1, r1
     c7e:	9f 57       	subi	r25, 0x7F	; 127
     c80:	50 40       	sbci	r21, 0x00	; 0
     c82:	8a f0       	brmi	.+34     	; 0xca6 <__mulsf3_pse+0x84>
     c84:	e1 f0       	breq	.+56     	; 0xcbe <__mulsf3_pse+0x9c>
     c86:	88 23       	and	r24, r24
     c88:	4a f0       	brmi	.+18     	; 0xc9c <__mulsf3_pse+0x7a>
     c8a:	ee 0f       	add	r30, r30
     c8c:	ff 1f       	adc	r31, r31
     c8e:	bb 1f       	adc	r27, r27
     c90:	66 1f       	adc	r22, r22
     c92:	77 1f       	adc	r23, r23
     c94:	88 1f       	adc	r24, r24
     c96:	91 50       	subi	r25, 0x01	; 1
     c98:	50 40       	sbci	r21, 0x00	; 0
     c9a:	a9 f7       	brne	.-22     	; 0xc86 <__mulsf3_pse+0x64>
     c9c:	9e 3f       	cpi	r25, 0xFE	; 254
     c9e:	51 05       	cpc	r21, r1
     ca0:	70 f0       	brcs	.+28     	; 0xcbe <__mulsf3_pse+0x9c>
     ca2:	60 cf       	rjmp	.-320    	; 0xb64 <__fp_inf>
     ca4:	aa cf       	rjmp	.-172    	; 0xbfa <__fp_szero>
     ca6:	5f 3f       	cpi	r21, 0xFF	; 255
     ca8:	ec f3       	brlt	.-6      	; 0xca4 <__mulsf3_pse+0x82>
     caa:	98 3e       	cpi	r25, 0xE8	; 232
     cac:	dc f3       	brlt	.-10     	; 0xca4 <__mulsf3_pse+0x82>
     cae:	86 95       	lsr	r24
     cb0:	77 95       	ror	r23
     cb2:	67 95       	ror	r22
     cb4:	b7 95       	ror	r27
     cb6:	f7 95       	ror	r31
     cb8:	e7 95       	ror	r30
     cba:	9f 5f       	subi	r25, 0xFF	; 255
     cbc:	c1 f7       	brne	.-16     	; 0xcae <__mulsf3_pse+0x8c>
     cbe:	fe 2b       	or	r31, r30
     cc0:	88 0f       	add	r24, r24
     cc2:	91 1d       	adc	r25, r1
     cc4:	96 95       	lsr	r25
     cc6:	87 95       	ror	r24
     cc8:	97 f9       	bld	r25, 7
     cca:	08 95       	ret

00000ccc <__divmodhi4>:
     ccc:	97 fb       	bst	r25, 7
     cce:	07 2e       	mov	r0, r23
     cd0:	16 f4       	brtc	.+4      	; 0xcd6 <__divmodhi4+0xa>
     cd2:	00 94       	com	r0
     cd4:	06 d0       	rcall	.+12     	; 0xce2 <__divmodhi4_neg1>
     cd6:	77 fd       	sbrc	r23, 7
     cd8:	08 d0       	rcall	.+16     	; 0xcea <__divmodhi4_neg2>
     cda:	0b d0       	rcall	.+22     	; 0xcf2 <__udivmodhi4>
     cdc:	07 fc       	sbrc	r0, 7
     cde:	05 d0       	rcall	.+10     	; 0xcea <__divmodhi4_neg2>
     ce0:	3e f4       	brtc	.+14     	; 0xcf0 <__divmodhi4_exit>

00000ce2 <__divmodhi4_neg1>:
     ce2:	90 95       	com	r25
     ce4:	81 95       	neg	r24
     ce6:	9f 4f       	sbci	r25, 0xFF	; 255
     ce8:	08 95       	ret

00000cea <__divmodhi4_neg2>:
     cea:	70 95       	com	r23
     cec:	61 95       	neg	r22
     cee:	7f 4f       	sbci	r23, 0xFF	; 255

00000cf0 <__divmodhi4_exit>:
     cf0:	08 95       	ret

00000cf2 <__udivmodhi4>:
     cf2:	aa 1b       	sub	r26, r26
     cf4:	bb 1b       	sub	r27, r27
     cf6:	51 e1       	ldi	r21, 0x11	; 17
     cf8:	07 c0       	rjmp	.+14     	; 0xd08 <__udivmodhi4_ep>

00000cfa <__udivmodhi4_loop>:
     cfa:	aa 1f       	adc	r26, r26
     cfc:	bb 1f       	adc	r27, r27
     cfe:	a6 17       	cp	r26, r22
     d00:	b7 07       	cpc	r27, r23
     d02:	10 f0       	brcs	.+4      	; 0xd08 <__udivmodhi4_ep>
     d04:	a6 1b       	sub	r26, r22
     d06:	b7 0b       	sbc	r27, r23

00000d08 <__udivmodhi4_ep>:
     d08:	88 1f       	adc	r24, r24
     d0a:	99 1f       	adc	r25, r25
     d0c:	5a 95       	dec	r21
     d0e:	a9 f7       	brne	.-22     	; 0xcfa <__udivmodhi4_loop>
     d10:	80 95       	com	r24
     d12:	90 95       	com	r25
     d14:	bc 01       	movw	r22, r24
     d16:	cd 01       	movw	r24, r26
     d18:	08 95       	ret

00000d1a <atoi>:
     d1a:	fc 01       	movw	r30, r24
     d1c:	88 27       	eor	r24, r24
     d1e:	99 27       	eor	r25, r25
     d20:	e8 94       	clt
     d22:	21 91       	ld	r18, Z+
     d24:	20 32       	cpi	r18, 0x20	; 32
     d26:	e9 f3       	breq	.-6      	; 0xd22 <atoi+0x8>
     d28:	29 30       	cpi	r18, 0x09	; 9
     d2a:	10 f0       	brcs	.+4      	; 0xd30 <atoi+0x16>
     d2c:	2e 30       	cpi	r18, 0x0E	; 14
     d2e:	c8 f3       	brcs	.-14     	; 0xd22 <atoi+0x8>
     d30:	2b 32       	cpi	r18, 0x2B	; 43
     d32:	39 f0       	breq	.+14     	; 0xd42 <atoi+0x28>
     d34:	2d 32       	cpi	r18, 0x2D	; 45
     d36:	31 f4       	brne	.+12     	; 0xd44 <atoi+0x2a>
     d38:	68 94       	set
     d3a:	03 c0       	rjmp	.+6      	; 0xd42 <atoi+0x28>
     d3c:	3e d0       	rcall	.+124    	; 0xdba <__mulhi_const_10>
     d3e:	82 0f       	add	r24, r18
     d40:	91 1d       	adc	r25, r1
     d42:	21 91       	ld	r18, Z+
     d44:	20 53       	subi	r18, 0x30	; 48
     d46:	2a 30       	cpi	r18, 0x0A	; 10
     d48:	c8 f3       	brcs	.-14     	; 0xd3c <atoi+0x22>
     d4a:	1e f4       	brtc	.+6      	; 0xd52 <atoi+0x38>
     d4c:	90 95       	com	r25
     d4e:	81 95       	neg	r24
     d50:	9f 4f       	sbci	r25, 0xFF	; 255
     d52:	08 95       	ret

00000d54 <strtok>:
     d54:	48 e2       	ldi	r20, 0x28	; 40
     d56:	51 e0       	ldi	r21, 0x01	; 1
     d58:	09 c0       	rjmp	.+18     	; 0xd6c <strtok_r>

00000d5a <strcmp>:
     d5a:	fb 01       	movw	r30, r22
     d5c:	dc 01       	movw	r26, r24
     d5e:	8d 91       	ld	r24, X+
     d60:	01 90       	ld	r0, Z+
     d62:	80 19       	sub	r24, r0
     d64:	01 10       	cpse	r0, r1
     d66:	d9 f3       	breq	.-10     	; 0xd5e <strcmp+0x4>
     d68:	99 0b       	sbc	r25, r25
     d6a:	08 95       	ret

00000d6c <strtok_r>:
     d6c:	fa 01       	movw	r30, r20
     d6e:	a1 91       	ld	r26, Z+
     d70:	b0 81       	ld	r27, Z
     d72:	00 97       	sbiw	r24, 0x00	; 0
     d74:	19 f4       	brne	.+6      	; 0xd7c <strtok_r+0x10>
     d76:	10 97       	sbiw	r26, 0x00	; 0
     d78:	e1 f0       	breq	.+56     	; 0xdb2 <strtok_r+0x46>
     d7a:	cd 01       	movw	r24, r26
     d7c:	dc 01       	movw	r26, r24
     d7e:	cd 01       	movw	r24, r26
     d80:	0d 90       	ld	r0, X+
     d82:	00 20       	and	r0, r0
     d84:	11 f4       	brne	.+4      	; 0xd8a <strtok_r+0x1e>
     d86:	c0 01       	movw	r24, r0
     d88:	13 c0       	rjmp	.+38     	; 0xdb0 <strtok_r+0x44>
     d8a:	fb 01       	movw	r30, r22
     d8c:	21 91       	ld	r18, Z+
     d8e:	22 23       	and	r18, r18
     d90:	19 f0       	breq	.+6      	; 0xd98 <strtok_r+0x2c>
     d92:	20 15       	cp	r18, r0
     d94:	d9 f7       	brne	.-10     	; 0xd8c <strtok_r+0x20>
     d96:	f3 cf       	rjmp	.-26     	; 0xd7e <strtok_r+0x12>
     d98:	fb 01       	movw	r30, r22
     d9a:	21 91       	ld	r18, Z+
     d9c:	20 15       	cp	r18, r0
     d9e:	19 f4       	brne	.+6      	; 0xda6 <strtok_r+0x3a>
     da0:	1e 92       	st	-X, r1
     da2:	11 96       	adiw	r26, 0x01	; 1
     da4:	06 c0       	rjmp	.+12     	; 0xdb2 <strtok_r+0x46>
     da6:	22 23       	and	r18, r18
     da8:	c1 f7       	brne	.-16     	; 0xd9a <strtok_r+0x2e>
     daa:	0d 90       	ld	r0, X+
     dac:	00 20       	and	r0, r0
     dae:	a1 f7       	brne	.-24     	; 0xd98 <strtok_r+0x2c>
     db0:	d0 01       	movw	r26, r0
     db2:	fa 01       	movw	r30, r20
     db4:	a1 93       	st	Z+, r26
     db6:	b0 83       	st	Z, r27
     db8:	08 95       	ret

00000dba <__mulhi_const_10>:
     dba:	7a e0       	ldi	r23, 0x0A	; 10
     dbc:	97 9f       	mul	r25, r23
     dbe:	90 2d       	mov	r25, r0
     dc0:	87 9f       	mul	r24, r23
     dc2:	80 2d       	mov	r24, r0
     dc4:	91 0d       	add	r25, r1
     dc6:	11 24       	eor	r1, r1
     dc8:	08 95       	ret

00000dca <sprintf>:
     dca:	0f 93       	push	r16
     dcc:	1f 93       	push	r17
     dce:	cf 93       	push	r28
     dd0:	df 93       	push	r29
     dd2:	cd b7       	in	r28, 0x3d	; 61
     dd4:	de b7       	in	r29, 0x3e	; 62
     dd6:	2e 97       	sbiw	r28, 0x0e	; 14
     dd8:	0f b6       	in	r0, 0x3f	; 63
     dda:	f8 94       	cli
     ddc:	de bf       	out	0x3e, r29	; 62
     dde:	0f be       	out	0x3f, r0	; 63
     de0:	cd bf       	out	0x3d, r28	; 61
     de2:	0d 89       	ldd	r16, Y+21	; 0x15
     de4:	1e 89       	ldd	r17, Y+22	; 0x16
     de6:	86 e0       	ldi	r24, 0x06	; 6
     de8:	8c 83       	std	Y+4, r24	; 0x04
     dea:	1a 83       	std	Y+2, r17	; 0x02
     dec:	09 83       	std	Y+1, r16	; 0x01
     dee:	8f ef       	ldi	r24, 0xFF	; 255
     df0:	9f e7       	ldi	r25, 0x7F	; 127
     df2:	9e 83       	std	Y+6, r25	; 0x06
     df4:	8d 83       	std	Y+5, r24	; 0x05
     df6:	ae 01       	movw	r20, r28
     df8:	47 5e       	subi	r20, 0xE7	; 231
     dfa:	5f 4f       	sbci	r21, 0xFF	; 255
     dfc:	6f 89       	ldd	r22, Y+23	; 0x17
     dfe:	78 8d       	ldd	r23, Y+24	; 0x18
     e00:	ce 01       	movw	r24, r28
     e02:	01 96       	adiw	r24, 0x01	; 1
     e04:	10 d0       	rcall	.+32     	; 0xe26 <vfprintf>
     e06:	ef 81       	ldd	r30, Y+7	; 0x07
     e08:	f8 85       	ldd	r31, Y+8	; 0x08
     e0a:	e0 0f       	add	r30, r16
     e0c:	f1 1f       	adc	r31, r17
     e0e:	10 82       	st	Z, r1
     e10:	2e 96       	adiw	r28, 0x0e	; 14
     e12:	0f b6       	in	r0, 0x3f	; 63
     e14:	f8 94       	cli
     e16:	de bf       	out	0x3e, r29	; 62
     e18:	0f be       	out	0x3f, r0	; 63
     e1a:	cd bf       	out	0x3d, r28	; 61
     e1c:	df 91       	pop	r29
     e1e:	cf 91       	pop	r28
     e20:	1f 91       	pop	r17
     e22:	0f 91       	pop	r16
     e24:	08 95       	ret

00000e26 <vfprintf>:
     e26:	2f 92       	push	r2
     e28:	3f 92       	push	r3
     e2a:	4f 92       	push	r4
     e2c:	5f 92       	push	r5
     e2e:	6f 92       	push	r6
     e30:	7f 92       	push	r7
     e32:	8f 92       	push	r8
     e34:	9f 92       	push	r9
     e36:	af 92       	push	r10
     e38:	bf 92       	push	r11
     e3a:	cf 92       	push	r12
     e3c:	df 92       	push	r13
     e3e:	ef 92       	push	r14
     e40:	ff 92       	push	r15
     e42:	0f 93       	push	r16
     e44:	1f 93       	push	r17
     e46:	cf 93       	push	r28
     e48:	df 93       	push	r29
     e4a:	cd b7       	in	r28, 0x3d	; 61
     e4c:	de b7       	in	r29, 0x3e	; 62
     e4e:	2b 97       	sbiw	r28, 0x0b	; 11
     e50:	0f b6       	in	r0, 0x3f	; 63
     e52:	f8 94       	cli
     e54:	de bf       	out	0x3e, r29	; 62
     e56:	0f be       	out	0x3f, r0	; 63
     e58:	cd bf       	out	0x3d, r28	; 61
     e5a:	6c 01       	movw	r12, r24
     e5c:	7b 01       	movw	r14, r22
     e5e:	8a 01       	movw	r16, r20
     e60:	fc 01       	movw	r30, r24
     e62:	17 82       	std	Z+7, r1	; 0x07
     e64:	16 82       	std	Z+6, r1	; 0x06
     e66:	83 81       	ldd	r24, Z+3	; 0x03
     e68:	81 ff       	sbrs	r24, 1
     e6a:	bf c1       	rjmp	.+894    	; 0x11ea <__stack+0xeb>
     e6c:	ce 01       	movw	r24, r28
     e6e:	01 96       	adiw	r24, 0x01	; 1
     e70:	3c 01       	movw	r6, r24
     e72:	f6 01       	movw	r30, r12
     e74:	93 81       	ldd	r25, Z+3	; 0x03
     e76:	f7 01       	movw	r30, r14
     e78:	93 fd       	sbrc	r25, 3
     e7a:	85 91       	lpm	r24, Z+
     e7c:	93 ff       	sbrs	r25, 3
     e7e:	81 91       	ld	r24, Z+
     e80:	7f 01       	movw	r14, r30
     e82:	88 23       	and	r24, r24
     e84:	09 f4       	brne	.+2      	; 0xe88 <vfprintf+0x62>
     e86:	ad c1       	rjmp	.+858    	; 0x11e2 <__stack+0xe3>
     e88:	85 32       	cpi	r24, 0x25	; 37
     e8a:	39 f4       	brne	.+14     	; 0xe9a <vfprintf+0x74>
     e8c:	93 fd       	sbrc	r25, 3
     e8e:	85 91       	lpm	r24, Z+
     e90:	93 ff       	sbrs	r25, 3
     e92:	81 91       	ld	r24, Z+
     e94:	7f 01       	movw	r14, r30
     e96:	85 32       	cpi	r24, 0x25	; 37
     e98:	21 f4       	brne	.+8      	; 0xea2 <vfprintf+0x7c>
     e9a:	b6 01       	movw	r22, r12
     e9c:	90 e0       	ldi	r25, 0x00	; 0
     e9e:	d6 d1       	rcall	.+940    	; 0x124c <fputc>
     ea0:	e8 cf       	rjmp	.-48     	; 0xe72 <vfprintf+0x4c>
     ea2:	91 2c       	mov	r9, r1
     ea4:	21 2c       	mov	r2, r1
     ea6:	31 2c       	mov	r3, r1
     ea8:	ff e1       	ldi	r31, 0x1F	; 31
     eaa:	f3 15       	cp	r31, r3
     eac:	d8 f0       	brcs	.+54     	; 0xee4 <vfprintf+0xbe>
     eae:	8b 32       	cpi	r24, 0x2B	; 43
     eb0:	79 f0       	breq	.+30     	; 0xed0 <vfprintf+0xaa>
     eb2:	38 f4       	brcc	.+14     	; 0xec2 <vfprintf+0x9c>
     eb4:	80 32       	cpi	r24, 0x20	; 32
     eb6:	79 f0       	breq	.+30     	; 0xed6 <vfprintf+0xb0>
     eb8:	83 32       	cpi	r24, 0x23	; 35
     eba:	a1 f4       	brne	.+40     	; 0xee4 <vfprintf+0xbe>
     ebc:	23 2d       	mov	r18, r3
     ebe:	20 61       	ori	r18, 0x10	; 16
     ec0:	1d c0       	rjmp	.+58     	; 0xefc <vfprintf+0xd6>
     ec2:	8d 32       	cpi	r24, 0x2D	; 45
     ec4:	61 f0       	breq	.+24     	; 0xede <vfprintf+0xb8>
     ec6:	80 33       	cpi	r24, 0x30	; 48
     ec8:	69 f4       	brne	.+26     	; 0xee4 <vfprintf+0xbe>
     eca:	23 2d       	mov	r18, r3
     ecc:	21 60       	ori	r18, 0x01	; 1
     ece:	16 c0       	rjmp	.+44     	; 0xefc <vfprintf+0xd6>
     ed0:	83 2d       	mov	r24, r3
     ed2:	82 60       	ori	r24, 0x02	; 2
     ed4:	38 2e       	mov	r3, r24
     ed6:	e3 2d       	mov	r30, r3
     ed8:	e4 60       	ori	r30, 0x04	; 4
     eda:	3e 2e       	mov	r3, r30
     edc:	2a c0       	rjmp	.+84     	; 0xf32 <vfprintf+0x10c>
     ede:	f3 2d       	mov	r31, r3
     ee0:	f8 60       	ori	r31, 0x08	; 8
     ee2:	1d c0       	rjmp	.+58     	; 0xf1e <vfprintf+0xf8>
     ee4:	37 fc       	sbrc	r3, 7
     ee6:	2d c0       	rjmp	.+90     	; 0xf42 <vfprintf+0x11c>
     ee8:	20 ed       	ldi	r18, 0xD0	; 208
     eea:	28 0f       	add	r18, r24
     eec:	2a 30       	cpi	r18, 0x0A	; 10
     eee:	40 f0       	brcs	.+16     	; 0xf00 <vfprintf+0xda>
     ef0:	8e 32       	cpi	r24, 0x2E	; 46
     ef2:	b9 f4       	brne	.+46     	; 0xf22 <vfprintf+0xfc>
     ef4:	36 fc       	sbrc	r3, 6
     ef6:	75 c1       	rjmp	.+746    	; 0x11e2 <__stack+0xe3>
     ef8:	23 2d       	mov	r18, r3
     efa:	20 64       	ori	r18, 0x40	; 64
     efc:	32 2e       	mov	r3, r18
     efe:	19 c0       	rjmp	.+50     	; 0xf32 <vfprintf+0x10c>
     f00:	36 fe       	sbrs	r3, 6
     f02:	06 c0       	rjmp	.+12     	; 0xf10 <vfprintf+0xea>
     f04:	8a e0       	ldi	r24, 0x0A	; 10
     f06:	98 9e       	mul	r9, r24
     f08:	20 0d       	add	r18, r0
     f0a:	11 24       	eor	r1, r1
     f0c:	92 2e       	mov	r9, r18
     f0e:	11 c0       	rjmp	.+34     	; 0xf32 <vfprintf+0x10c>
     f10:	ea e0       	ldi	r30, 0x0A	; 10
     f12:	2e 9e       	mul	r2, r30
     f14:	20 0d       	add	r18, r0
     f16:	11 24       	eor	r1, r1
     f18:	22 2e       	mov	r2, r18
     f1a:	f3 2d       	mov	r31, r3
     f1c:	f0 62       	ori	r31, 0x20	; 32
     f1e:	3f 2e       	mov	r3, r31
     f20:	08 c0       	rjmp	.+16     	; 0xf32 <vfprintf+0x10c>
     f22:	8c 36       	cpi	r24, 0x6C	; 108
     f24:	21 f4       	brne	.+8      	; 0xf2e <vfprintf+0x108>
     f26:	83 2d       	mov	r24, r3
     f28:	80 68       	ori	r24, 0x80	; 128
     f2a:	38 2e       	mov	r3, r24
     f2c:	02 c0       	rjmp	.+4      	; 0xf32 <vfprintf+0x10c>
     f2e:	88 36       	cpi	r24, 0x68	; 104
     f30:	41 f4       	brne	.+16     	; 0xf42 <vfprintf+0x11c>
     f32:	f7 01       	movw	r30, r14
     f34:	93 fd       	sbrc	r25, 3
     f36:	85 91       	lpm	r24, Z+
     f38:	93 ff       	sbrs	r25, 3
     f3a:	81 91       	ld	r24, Z+
     f3c:	7f 01       	movw	r14, r30
     f3e:	81 11       	cpse	r24, r1
     f40:	b3 cf       	rjmp	.-154    	; 0xea8 <vfprintf+0x82>
     f42:	98 2f       	mov	r25, r24
     f44:	9f 7d       	andi	r25, 0xDF	; 223
     f46:	95 54       	subi	r25, 0x45	; 69
     f48:	93 30       	cpi	r25, 0x03	; 3
     f4a:	28 f4       	brcc	.+10     	; 0xf56 <vfprintf+0x130>
     f4c:	0c 5f       	subi	r16, 0xFC	; 252
     f4e:	1f 4f       	sbci	r17, 0xFF	; 255
     f50:	9f e3       	ldi	r25, 0x3F	; 63
     f52:	99 83       	std	Y+1, r25	; 0x01
     f54:	0d c0       	rjmp	.+26     	; 0xf70 <vfprintf+0x14a>
     f56:	83 36       	cpi	r24, 0x63	; 99
     f58:	31 f0       	breq	.+12     	; 0xf66 <vfprintf+0x140>
     f5a:	83 37       	cpi	r24, 0x73	; 115
     f5c:	71 f0       	breq	.+28     	; 0xf7a <vfprintf+0x154>
     f5e:	83 35       	cpi	r24, 0x53	; 83
     f60:	09 f0       	breq	.+2      	; 0xf64 <vfprintf+0x13e>
     f62:	55 c0       	rjmp	.+170    	; 0x100e <__DATA_REGION_LENGTH__+0xe>
     f64:	20 c0       	rjmp	.+64     	; 0xfa6 <vfprintf+0x180>
     f66:	f8 01       	movw	r30, r16
     f68:	80 81       	ld	r24, Z
     f6a:	89 83       	std	Y+1, r24	; 0x01
     f6c:	0e 5f       	subi	r16, 0xFE	; 254
     f6e:	1f 4f       	sbci	r17, 0xFF	; 255
     f70:	88 24       	eor	r8, r8
     f72:	83 94       	inc	r8
     f74:	91 2c       	mov	r9, r1
     f76:	53 01       	movw	r10, r6
     f78:	12 c0       	rjmp	.+36     	; 0xf9e <vfprintf+0x178>
     f7a:	28 01       	movw	r4, r16
     f7c:	f2 e0       	ldi	r31, 0x02	; 2
     f7e:	4f 0e       	add	r4, r31
     f80:	51 1c       	adc	r5, r1
     f82:	f8 01       	movw	r30, r16
     f84:	a0 80       	ld	r10, Z
     f86:	b1 80       	ldd	r11, Z+1	; 0x01
     f88:	36 fe       	sbrs	r3, 6
     f8a:	03 c0       	rjmp	.+6      	; 0xf92 <vfprintf+0x16c>
     f8c:	69 2d       	mov	r22, r9
     f8e:	70 e0       	ldi	r23, 0x00	; 0
     f90:	02 c0       	rjmp	.+4      	; 0xf96 <vfprintf+0x170>
     f92:	6f ef       	ldi	r22, 0xFF	; 255
     f94:	7f ef       	ldi	r23, 0xFF	; 255
     f96:	c5 01       	movw	r24, r10
     f98:	4e d1       	rcall	.+668    	; 0x1236 <strnlen>
     f9a:	4c 01       	movw	r8, r24
     f9c:	82 01       	movw	r16, r4
     f9e:	f3 2d       	mov	r31, r3
     fa0:	ff 77       	andi	r31, 0x7F	; 127
     fa2:	3f 2e       	mov	r3, r31
     fa4:	15 c0       	rjmp	.+42     	; 0xfd0 <vfprintf+0x1aa>
     fa6:	28 01       	movw	r4, r16
     fa8:	22 e0       	ldi	r18, 0x02	; 2
     faa:	42 0e       	add	r4, r18
     fac:	51 1c       	adc	r5, r1
     fae:	f8 01       	movw	r30, r16
     fb0:	a0 80       	ld	r10, Z
     fb2:	b1 80       	ldd	r11, Z+1	; 0x01
     fb4:	36 fe       	sbrs	r3, 6
     fb6:	03 c0       	rjmp	.+6      	; 0xfbe <vfprintf+0x198>
     fb8:	69 2d       	mov	r22, r9
     fba:	70 e0       	ldi	r23, 0x00	; 0
     fbc:	02 c0       	rjmp	.+4      	; 0xfc2 <vfprintf+0x19c>
     fbe:	6f ef       	ldi	r22, 0xFF	; 255
     fc0:	7f ef       	ldi	r23, 0xFF	; 255
     fc2:	c5 01       	movw	r24, r10
     fc4:	2d d1       	rcall	.+602    	; 0x1220 <strnlen_P>
     fc6:	4c 01       	movw	r8, r24
     fc8:	f3 2d       	mov	r31, r3
     fca:	f0 68       	ori	r31, 0x80	; 128
     fcc:	3f 2e       	mov	r3, r31
     fce:	82 01       	movw	r16, r4
     fd0:	33 fc       	sbrc	r3, 3
     fd2:	19 c0       	rjmp	.+50     	; 0x1006 <__DATA_REGION_LENGTH__+0x6>
     fd4:	82 2d       	mov	r24, r2
     fd6:	90 e0       	ldi	r25, 0x00	; 0
     fd8:	88 16       	cp	r8, r24
     fda:	99 06       	cpc	r9, r25
     fdc:	a0 f4       	brcc	.+40     	; 0x1006 <__DATA_REGION_LENGTH__+0x6>
     fde:	b6 01       	movw	r22, r12
     fe0:	80 e2       	ldi	r24, 0x20	; 32
     fe2:	90 e0       	ldi	r25, 0x00	; 0
     fe4:	33 d1       	rcall	.+614    	; 0x124c <fputc>
     fe6:	2a 94       	dec	r2
     fe8:	f5 cf       	rjmp	.-22     	; 0xfd4 <vfprintf+0x1ae>
     fea:	f5 01       	movw	r30, r10
     fec:	37 fc       	sbrc	r3, 7
     fee:	85 91       	lpm	r24, Z+
     ff0:	37 fe       	sbrs	r3, 7
     ff2:	81 91       	ld	r24, Z+
     ff4:	5f 01       	movw	r10, r30
     ff6:	b6 01       	movw	r22, r12
     ff8:	90 e0       	ldi	r25, 0x00	; 0
     ffa:	28 d1       	rcall	.+592    	; 0x124c <fputc>
     ffc:	21 10       	cpse	r2, r1
     ffe:	2a 94       	dec	r2
    1000:	21 e0       	ldi	r18, 0x01	; 1
    1002:	82 1a       	sub	r8, r18
    1004:	91 08       	sbc	r9, r1
    1006:	81 14       	cp	r8, r1
    1008:	91 04       	cpc	r9, r1
    100a:	79 f7       	brne	.-34     	; 0xfea <vfprintf+0x1c4>
    100c:	e1 c0       	rjmp	.+450    	; 0x11d0 <__stack+0xd1>
    100e:	84 36       	cpi	r24, 0x64	; 100
    1010:	11 f0       	breq	.+4      	; 0x1016 <__DATA_REGION_LENGTH__+0x16>
    1012:	89 36       	cpi	r24, 0x69	; 105
    1014:	39 f5       	brne	.+78     	; 0x1064 <__DATA_REGION_LENGTH__+0x64>
    1016:	f8 01       	movw	r30, r16
    1018:	37 fe       	sbrs	r3, 7
    101a:	07 c0       	rjmp	.+14     	; 0x102a <__DATA_REGION_LENGTH__+0x2a>
    101c:	60 81       	ld	r22, Z
    101e:	71 81       	ldd	r23, Z+1	; 0x01
    1020:	82 81       	ldd	r24, Z+2	; 0x02
    1022:	93 81       	ldd	r25, Z+3	; 0x03
    1024:	0c 5f       	subi	r16, 0xFC	; 252
    1026:	1f 4f       	sbci	r17, 0xFF	; 255
    1028:	08 c0       	rjmp	.+16     	; 0x103a <__DATA_REGION_LENGTH__+0x3a>
    102a:	60 81       	ld	r22, Z
    102c:	71 81       	ldd	r23, Z+1	; 0x01
    102e:	07 2e       	mov	r0, r23
    1030:	00 0c       	add	r0, r0
    1032:	88 0b       	sbc	r24, r24
    1034:	99 0b       	sbc	r25, r25
    1036:	0e 5f       	subi	r16, 0xFE	; 254
    1038:	1f 4f       	sbci	r17, 0xFF	; 255
    103a:	f3 2d       	mov	r31, r3
    103c:	ff 76       	andi	r31, 0x6F	; 111
    103e:	3f 2e       	mov	r3, r31
    1040:	97 ff       	sbrs	r25, 7
    1042:	09 c0       	rjmp	.+18     	; 0x1056 <__DATA_REGION_LENGTH__+0x56>
    1044:	90 95       	com	r25
    1046:	80 95       	com	r24
    1048:	70 95       	com	r23
    104a:	61 95       	neg	r22
    104c:	7f 4f       	sbci	r23, 0xFF	; 255
    104e:	8f 4f       	sbci	r24, 0xFF	; 255
    1050:	9f 4f       	sbci	r25, 0xFF	; 255
    1052:	f0 68       	ori	r31, 0x80	; 128
    1054:	3f 2e       	mov	r3, r31
    1056:	2a e0       	ldi	r18, 0x0A	; 10
    1058:	30 e0       	ldi	r19, 0x00	; 0
    105a:	a3 01       	movw	r20, r6
    105c:	33 d1       	rcall	.+614    	; 0x12c4 <__ultoa_invert>
    105e:	88 2e       	mov	r8, r24
    1060:	86 18       	sub	r8, r6
    1062:	44 c0       	rjmp	.+136    	; 0x10ec <__DATA_REGION_LENGTH__+0xec>
    1064:	85 37       	cpi	r24, 0x75	; 117
    1066:	31 f4       	brne	.+12     	; 0x1074 <__DATA_REGION_LENGTH__+0x74>
    1068:	23 2d       	mov	r18, r3
    106a:	2f 7e       	andi	r18, 0xEF	; 239
    106c:	b2 2e       	mov	r11, r18
    106e:	2a e0       	ldi	r18, 0x0A	; 10
    1070:	30 e0       	ldi	r19, 0x00	; 0
    1072:	25 c0       	rjmp	.+74     	; 0x10be <__DATA_REGION_LENGTH__+0xbe>
    1074:	93 2d       	mov	r25, r3
    1076:	99 7f       	andi	r25, 0xF9	; 249
    1078:	b9 2e       	mov	r11, r25
    107a:	8f 36       	cpi	r24, 0x6F	; 111
    107c:	c1 f0       	breq	.+48     	; 0x10ae <__DATA_REGION_LENGTH__+0xae>
    107e:	18 f4       	brcc	.+6      	; 0x1086 <__DATA_REGION_LENGTH__+0x86>
    1080:	88 35       	cpi	r24, 0x58	; 88
    1082:	79 f0       	breq	.+30     	; 0x10a2 <__DATA_REGION_LENGTH__+0xa2>
    1084:	ae c0       	rjmp	.+348    	; 0x11e2 <__stack+0xe3>
    1086:	80 37       	cpi	r24, 0x70	; 112
    1088:	19 f0       	breq	.+6      	; 0x1090 <__DATA_REGION_LENGTH__+0x90>
    108a:	88 37       	cpi	r24, 0x78	; 120
    108c:	21 f0       	breq	.+8      	; 0x1096 <__DATA_REGION_LENGTH__+0x96>
    108e:	a9 c0       	rjmp	.+338    	; 0x11e2 <__stack+0xe3>
    1090:	e9 2f       	mov	r30, r25
    1092:	e0 61       	ori	r30, 0x10	; 16
    1094:	be 2e       	mov	r11, r30
    1096:	b4 fe       	sbrs	r11, 4
    1098:	0d c0       	rjmp	.+26     	; 0x10b4 <__DATA_REGION_LENGTH__+0xb4>
    109a:	fb 2d       	mov	r31, r11
    109c:	f4 60       	ori	r31, 0x04	; 4
    109e:	bf 2e       	mov	r11, r31
    10a0:	09 c0       	rjmp	.+18     	; 0x10b4 <__DATA_REGION_LENGTH__+0xb4>
    10a2:	34 fe       	sbrs	r3, 4
    10a4:	0a c0       	rjmp	.+20     	; 0x10ba <__DATA_REGION_LENGTH__+0xba>
    10a6:	29 2f       	mov	r18, r25
    10a8:	26 60       	ori	r18, 0x06	; 6
    10aa:	b2 2e       	mov	r11, r18
    10ac:	06 c0       	rjmp	.+12     	; 0x10ba <__DATA_REGION_LENGTH__+0xba>
    10ae:	28 e0       	ldi	r18, 0x08	; 8
    10b0:	30 e0       	ldi	r19, 0x00	; 0
    10b2:	05 c0       	rjmp	.+10     	; 0x10be <__DATA_REGION_LENGTH__+0xbe>
    10b4:	20 e1       	ldi	r18, 0x10	; 16
    10b6:	30 e0       	ldi	r19, 0x00	; 0
    10b8:	02 c0       	rjmp	.+4      	; 0x10be <__DATA_REGION_LENGTH__+0xbe>
    10ba:	20 e1       	ldi	r18, 0x10	; 16
    10bc:	32 e0       	ldi	r19, 0x02	; 2
    10be:	f8 01       	movw	r30, r16
    10c0:	b7 fe       	sbrs	r11, 7
    10c2:	07 c0       	rjmp	.+14     	; 0x10d2 <__DATA_REGION_LENGTH__+0xd2>
    10c4:	60 81       	ld	r22, Z
    10c6:	71 81       	ldd	r23, Z+1	; 0x01
    10c8:	82 81       	ldd	r24, Z+2	; 0x02
    10ca:	93 81       	ldd	r25, Z+3	; 0x03
    10cc:	0c 5f       	subi	r16, 0xFC	; 252
    10ce:	1f 4f       	sbci	r17, 0xFF	; 255
    10d0:	06 c0       	rjmp	.+12     	; 0x10de <__DATA_REGION_LENGTH__+0xde>
    10d2:	60 81       	ld	r22, Z
    10d4:	71 81       	ldd	r23, Z+1	; 0x01
    10d6:	80 e0       	ldi	r24, 0x00	; 0
    10d8:	90 e0       	ldi	r25, 0x00	; 0
    10da:	0e 5f       	subi	r16, 0xFE	; 254
    10dc:	1f 4f       	sbci	r17, 0xFF	; 255
    10de:	a3 01       	movw	r20, r6
    10e0:	f1 d0       	rcall	.+482    	; 0x12c4 <__ultoa_invert>
    10e2:	88 2e       	mov	r8, r24
    10e4:	86 18       	sub	r8, r6
    10e6:	fb 2d       	mov	r31, r11
    10e8:	ff 77       	andi	r31, 0x7F	; 127
    10ea:	3f 2e       	mov	r3, r31
    10ec:	36 fe       	sbrs	r3, 6
    10ee:	0d c0       	rjmp	.+26     	; 0x110a <__stack+0xb>
    10f0:	23 2d       	mov	r18, r3
    10f2:	2e 7f       	andi	r18, 0xFE	; 254
    10f4:	a2 2e       	mov	r10, r18
    10f6:	89 14       	cp	r8, r9
    10f8:	58 f4       	brcc	.+22     	; 0x1110 <__stack+0x11>
    10fa:	34 fe       	sbrs	r3, 4
    10fc:	0b c0       	rjmp	.+22     	; 0x1114 <__stack+0x15>
    10fe:	32 fc       	sbrc	r3, 2
    1100:	09 c0       	rjmp	.+18     	; 0x1114 <__stack+0x15>
    1102:	83 2d       	mov	r24, r3
    1104:	8e 7e       	andi	r24, 0xEE	; 238
    1106:	a8 2e       	mov	r10, r24
    1108:	05 c0       	rjmp	.+10     	; 0x1114 <__stack+0x15>
    110a:	b8 2c       	mov	r11, r8
    110c:	a3 2c       	mov	r10, r3
    110e:	03 c0       	rjmp	.+6      	; 0x1116 <__stack+0x17>
    1110:	b8 2c       	mov	r11, r8
    1112:	01 c0       	rjmp	.+2      	; 0x1116 <__stack+0x17>
    1114:	b9 2c       	mov	r11, r9
    1116:	a4 fe       	sbrs	r10, 4
    1118:	0f c0       	rjmp	.+30     	; 0x1138 <__stack+0x39>
    111a:	fe 01       	movw	r30, r28
    111c:	e8 0d       	add	r30, r8
    111e:	f1 1d       	adc	r31, r1
    1120:	80 81       	ld	r24, Z
    1122:	80 33       	cpi	r24, 0x30	; 48
    1124:	21 f4       	brne	.+8      	; 0x112e <__stack+0x2f>
    1126:	9a 2d       	mov	r25, r10
    1128:	99 7e       	andi	r25, 0xE9	; 233
    112a:	a9 2e       	mov	r10, r25
    112c:	09 c0       	rjmp	.+18     	; 0x1140 <__stack+0x41>
    112e:	a2 fe       	sbrs	r10, 2
    1130:	06 c0       	rjmp	.+12     	; 0x113e <__stack+0x3f>
    1132:	b3 94       	inc	r11
    1134:	b3 94       	inc	r11
    1136:	04 c0       	rjmp	.+8      	; 0x1140 <__stack+0x41>
    1138:	8a 2d       	mov	r24, r10
    113a:	86 78       	andi	r24, 0x86	; 134
    113c:	09 f0       	breq	.+2      	; 0x1140 <__stack+0x41>
    113e:	b3 94       	inc	r11
    1140:	a3 fc       	sbrc	r10, 3
    1142:	10 c0       	rjmp	.+32     	; 0x1164 <__stack+0x65>
    1144:	a0 fe       	sbrs	r10, 0
    1146:	06 c0       	rjmp	.+12     	; 0x1154 <__stack+0x55>
    1148:	b2 14       	cp	r11, r2
    114a:	80 f4       	brcc	.+32     	; 0x116c <__stack+0x6d>
    114c:	28 0c       	add	r2, r8
    114e:	92 2c       	mov	r9, r2
    1150:	9b 18       	sub	r9, r11
    1152:	0d c0       	rjmp	.+26     	; 0x116e <__stack+0x6f>
    1154:	b2 14       	cp	r11, r2
    1156:	58 f4       	brcc	.+22     	; 0x116e <__stack+0x6f>
    1158:	b6 01       	movw	r22, r12
    115a:	80 e2       	ldi	r24, 0x20	; 32
    115c:	90 e0       	ldi	r25, 0x00	; 0
    115e:	76 d0       	rcall	.+236    	; 0x124c <fputc>
    1160:	b3 94       	inc	r11
    1162:	f8 cf       	rjmp	.-16     	; 0x1154 <__stack+0x55>
    1164:	b2 14       	cp	r11, r2
    1166:	18 f4       	brcc	.+6      	; 0x116e <__stack+0x6f>
    1168:	2b 18       	sub	r2, r11
    116a:	02 c0       	rjmp	.+4      	; 0x1170 <__stack+0x71>
    116c:	98 2c       	mov	r9, r8
    116e:	21 2c       	mov	r2, r1
    1170:	a4 fe       	sbrs	r10, 4
    1172:	0f c0       	rjmp	.+30     	; 0x1192 <__stack+0x93>
    1174:	b6 01       	movw	r22, r12
    1176:	80 e3       	ldi	r24, 0x30	; 48
    1178:	90 e0       	ldi	r25, 0x00	; 0
    117a:	68 d0       	rcall	.+208    	; 0x124c <fputc>
    117c:	a2 fe       	sbrs	r10, 2
    117e:	16 c0       	rjmp	.+44     	; 0x11ac <__stack+0xad>
    1180:	a1 fc       	sbrc	r10, 1
    1182:	03 c0       	rjmp	.+6      	; 0x118a <__stack+0x8b>
    1184:	88 e7       	ldi	r24, 0x78	; 120
    1186:	90 e0       	ldi	r25, 0x00	; 0
    1188:	02 c0       	rjmp	.+4      	; 0x118e <__stack+0x8f>
    118a:	88 e5       	ldi	r24, 0x58	; 88
    118c:	90 e0       	ldi	r25, 0x00	; 0
    118e:	b6 01       	movw	r22, r12
    1190:	0c c0       	rjmp	.+24     	; 0x11aa <__stack+0xab>
    1192:	8a 2d       	mov	r24, r10
    1194:	86 78       	andi	r24, 0x86	; 134
    1196:	51 f0       	breq	.+20     	; 0x11ac <__stack+0xad>
    1198:	a1 fe       	sbrs	r10, 1
    119a:	02 c0       	rjmp	.+4      	; 0x11a0 <__stack+0xa1>
    119c:	8b e2       	ldi	r24, 0x2B	; 43
    119e:	01 c0       	rjmp	.+2      	; 0x11a2 <__stack+0xa3>
    11a0:	80 e2       	ldi	r24, 0x20	; 32
    11a2:	a7 fc       	sbrc	r10, 7
    11a4:	8d e2       	ldi	r24, 0x2D	; 45
    11a6:	b6 01       	movw	r22, r12
    11a8:	90 e0       	ldi	r25, 0x00	; 0
    11aa:	50 d0       	rcall	.+160    	; 0x124c <fputc>
    11ac:	89 14       	cp	r8, r9
    11ae:	30 f4       	brcc	.+12     	; 0x11bc <__stack+0xbd>
    11b0:	b6 01       	movw	r22, r12
    11b2:	80 e3       	ldi	r24, 0x30	; 48
    11b4:	90 e0       	ldi	r25, 0x00	; 0
    11b6:	4a d0       	rcall	.+148    	; 0x124c <fputc>
    11b8:	9a 94       	dec	r9
    11ba:	f8 cf       	rjmp	.-16     	; 0x11ac <__stack+0xad>
    11bc:	8a 94       	dec	r8
    11be:	f3 01       	movw	r30, r6
    11c0:	e8 0d       	add	r30, r8
    11c2:	f1 1d       	adc	r31, r1
    11c4:	80 81       	ld	r24, Z
    11c6:	b6 01       	movw	r22, r12
    11c8:	90 e0       	ldi	r25, 0x00	; 0
    11ca:	40 d0       	rcall	.+128    	; 0x124c <fputc>
    11cc:	81 10       	cpse	r8, r1
    11ce:	f6 cf       	rjmp	.-20     	; 0x11bc <__stack+0xbd>
    11d0:	22 20       	and	r2, r2
    11d2:	09 f4       	brne	.+2      	; 0x11d6 <__stack+0xd7>
    11d4:	4e ce       	rjmp	.-868    	; 0xe72 <vfprintf+0x4c>
    11d6:	b6 01       	movw	r22, r12
    11d8:	80 e2       	ldi	r24, 0x20	; 32
    11da:	90 e0       	ldi	r25, 0x00	; 0
    11dc:	37 d0       	rcall	.+110    	; 0x124c <fputc>
    11de:	2a 94       	dec	r2
    11e0:	f7 cf       	rjmp	.-18     	; 0x11d0 <__stack+0xd1>
    11e2:	f6 01       	movw	r30, r12
    11e4:	86 81       	ldd	r24, Z+6	; 0x06
    11e6:	97 81       	ldd	r25, Z+7	; 0x07
    11e8:	02 c0       	rjmp	.+4      	; 0x11ee <__stack+0xef>
    11ea:	8f ef       	ldi	r24, 0xFF	; 255
    11ec:	9f ef       	ldi	r25, 0xFF	; 255
    11ee:	2b 96       	adiw	r28, 0x0b	; 11
    11f0:	0f b6       	in	r0, 0x3f	; 63
    11f2:	f8 94       	cli
    11f4:	de bf       	out	0x3e, r29	; 62
    11f6:	0f be       	out	0x3f, r0	; 63
    11f8:	cd bf       	out	0x3d, r28	; 61
    11fa:	df 91       	pop	r29
    11fc:	cf 91       	pop	r28
    11fe:	1f 91       	pop	r17
    1200:	0f 91       	pop	r16
    1202:	ff 90       	pop	r15
    1204:	ef 90       	pop	r14
    1206:	df 90       	pop	r13
    1208:	cf 90       	pop	r12
    120a:	bf 90       	pop	r11
    120c:	af 90       	pop	r10
    120e:	9f 90       	pop	r9
    1210:	8f 90       	pop	r8
    1212:	7f 90       	pop	r7
    1214:	6f 90       	pop	r6
    1216:	5f 90       	pop	r5
    1218:	4f 90       	pop	r4
    121a:	3f 90       	pop	r3
    121c:	2f 90       	pop	r2
    121e:	08 95       	ret

00001220 <strnlen_P>:
    1220:	fc 01       	movw	r30, r24
    1222:	05 90       	lpm	r0, Z+
    1224:	61 50       	subi	r22, 0x01	; 1
    1226:	70 40       	sbci	r23, 0x00	; 0
    1228:	01 10       	cpse	r0, r1
    122a:	d8 f7       	brcc	.-10     	; 0x1222 <strnlen_P+0x2>
    122c:	80 95       	com	r24
    122e:	90 95       	com	r25
    1230:	8e 0f       	add	r24, r30
    1232:	9f 1f       	adc	r25, r31
    1234:	08 95       	ret

00001236 <strnlen>:
    1236:	fc 01       	movw	r30, r24
    1238:	61 50       	subi	r22, 0x01	; 1
    123a:	70 40       	sbci	r23, 0x00	; 0
    123c:	01 90       	ld	r0, Z+
    123e:	01 10       	cpse	r0, r1
    1240:	d8 f7       	brcc	.-10     	; 0x1238 <strnlen+0x2>
    1242:	80 95       	com	r24
    1244:	90 95       	com	r25
    1246:	8e 0f       	add	r24, r30
    1248:	9f 1f       	adc	r25, r31
    124a:	08 95       	ret

0000124c <fputc>:
    124c:	0f 93       	push	r16
    124e:	1f 93       	push	r17
    1250:	cf 93       	push	r28
    1252:	df 93       	push	r29
    1254:	fb 01       	movw	r30, r22
    1256:	23 81       	ldd	r18, Z+3	; 0x03
    1258:	21 fd       	sbrc	r18, 1
    125a:	03 c0       	rjmp	.+6      	; 0x1262 <fputc+0x16>
    125c:	8f ef       	ldi	r24, 0xFF	; 255
    125e:	9f ef       	ldi	r25, 0xFF	; 255
    1260:	2c c0       	rjmp	.+88     	; 0x12ba <fputc+0x6e>
    1262:	22 ff       	sbrs	r18, 2
    1264:	16 c0       	rjmp	.+44     	; 0x1292 <fputc+0x46>
    1266:	46 81       	ldd	r20, Z+6	; 0x06
    1268:	57 81       	ldd	r21, Z+7	; 0x07
    126a:	24 81       	ldd	r18, Z+4	; 0x04
    126c:	35 81       	ldd	r19, Z+5	; 0x05
    126e:	42 17       	cp	r20, r18
    1270:	53 07       	cpc	r21, r19
    1272:	44 f4       	brge	.+16     	; 0x1284 <fputc+0x38>
    1274:	a0 81       	ld	r26, Z
    1276:	b1 81       	ldd	r27, Z+1	; 0x01
    1278:	9d 01       	movw	r18, r26
    127a:	2f 5f       	subi	r18, 0xFF	; 255
    127c:	3f 4f       	sbci	r19, 0xFF	; 255
    127e:	31 83       	std	Z+1, r19	; 0x01
    1280:	20 83       	st	Z, r18
    1282:	8c 93       	st	X, r24
    1284:	26 81       	ldd	r18, Z+6	; 0x06
    1286:	37 81       	ldd	r19, Z+7	; 0x07
    1288:	2f 5f       	subi	r18, 0xFF	; 255
    128a:	3f 4f       	sbci	r19, 0xFF	; 255
    128c:	37 83       	std	Z+7, r19	; 0x07
    128e:	26 83       	std	Z+6, r18	; 0x06
    1290:	14 c0       	rjmp	.+40     	; 0x12ba <fputc+0x6e>
    1292:	8b 01       	movw	r16, r22
    1294:	ec 01       	movw	r28, r24
    1296:	fb 01       	movw	r30, r22
    1298:	00 84       	ldd	r0, Z+8	; 0x08
    129a:	f1 85       	ldd	r31, Z+9	; 0x09
    129c:	e0 2d       	mov	r30, r0
    129e:	09 95       	icall
    12a0:	89 2b       	or	r24, r25
    12a2:	e1 f6       	brne	.-72     	; 0x125c <fputc+0x10>
    12a4:	d8 01       	movw	r26, r16
    12a6:	16 96       	adiw	r26, 0x06	; 6
    12a8:	8d 91       	ld	r24, X+
    12aa:	9c 91       	ld	r25, X
    12ac:	17 97       	sbiw	r26, 0x07	; 7
    12ae:	01 96       	adiw	r24, 0x01	; 1
    12b0:	17 96       	adiw	r26, 0x07	; 7
    12b2:	9c 93       	st	X, r25
    12b4:	8e 93       	st	-X, r24
    12b6:	16 97       	sbiw	r26, 0x06	; 6
    12b8:	ce 01       	movw	r24, r28
    12ba:	df 91       	pop	r29
    12bc:	cf 91       	pop	r28
    12be:	1f 91       	pop	r17
    12c0:	0f 91       	pop	r16
    12c2:	08 95       	ret

000012c4 <__ultoa_invert>:
    12c4:	fa 01       	movw	r30, r20
    12c6:	aa 27       	eor	r26, r26
    12c8:	28 30       	cpi	r18, 0x08	; 8
    12ca:	51 f1       	breq	.+84     	; 0x1320 <__ultoa_invert+0x5c>
    12cc:	20 31       	cpi	r18, 0x10	; 16
    12ce:	81 f1       	breq	.+96     	; 0x1330 <__ultoa_invert+0x6c>
    12d0:	e8 94       	clt
    12d2:	6f 93       	push	r22
    12d4:	6e 7f       	andi	r22, 0xFE	; 254
    12d6:	6e 5f       	subi	r22, 0xFE	; 254
    12d8:	7f 4f       	sbci	r23, 0xFF	; 255
    12da:	8f 4f       	sbci	r24, 0xFF	; 255
    12dc:	9f 4f       	sbci	r25, 0xFF	; 255
    12de:	af 4f       	sbci	r26, 0xFF	; 255
    12e0:	b1 e0       	ldi	r27, 0x01	; 1
    12e2:	3e d0       	rcall	.+124    	; 0x1360 <__ultoa_invert+0x9c>
    12e4:	b4 e0       	ldi	r27, 0x04	; 4
    12e6:	3c d0       	rcall	.+120    	; 0x1360 <__ultoa_invert+0x9c>
    12e8:	67 0f       	add	r22, r23
    12ea:	78 1f       	adc	r23, r24
    12ec:	89 1f       	adc	r24, r25
    12ee:	9a 1f       	adc	r25, r26
    12f0:	a1 1d       	adc	r26, r1
    12f2:	68 0f       	add	r22, r24
    12f4:	79 1f       	adc	r23, r25
    12f6:	8a 1f       	adc	r24, r26
    12f8:	91 1d       	adc	r25, r1
    12fa:	a1 1d       	adc	r26, r1
    12fc:	6a 0f       	add	r22, r26
    12fe:	71 1d       	adc	r23, r1
    1300:	81 1d       	adc	r24, r1
    1302:	91 1d       	adc	r25, r1
    1304:	a1 1d       	adc	r26, r1
    1306:	20 d0       	rcall	.+64     	; 0x1348 <__ultoa_invert+0x84>
    1308:	09 f4       	brne	.+2      	; 0x130c <__ultoa_invert+0x48>
    130a:	68 94       	set
    130c:	3f 91       	pop	r19
    130e:	2a e0       	ldi	r18, 0x0A	; 10
    1310:	26 9f       	mul	r18, r22
    1312:	11 24       	eor	r1, r1
    1314:	30 19       	sub	r19, r0
    1316:	30 5d       	subi	r19, 0xD0	; 208
    1318:	31 93       	st	Z+, r19
    131a:	de f6       	brtc	.-74     	; 0x12d2 <__ultoa_invert+0xe>
    131c:	cf 01       	movw	r24, r30
    131e:	08 95       	ret
    1320:	46 2f       	mov	r20, r22
    1322:	47 70       	andi	r20, 0x07	; 7
    1324:	40 5d       	subi	r20, 0xD0	; 208
    1326:	41 93       	st	Z+, r20
    1328:	b3 e0       	ldi	r27, 0x03	; 3
    132a:	0f d0       	rcall	.+30     	; 0x134a <__ultoa_invert+0x86>
    132c:	c9 f7       	brne	.-14     	; 0x1320 <__ultoa_invert+0x5c>
    132e:	f6 cf       	rjmp	.-20     	; 0x131c <__ultoa_invert+0x58>
    1330:	46 2f       	mov	r20, r22
    1332:	4f 70       	andi	r20, 0x0F	; 15
    1334:	40 5d       	subi	r20, 0xD0	; 208
    1336:	4a 33       	cpi	r20, 0x3A	; 58
    1338:	18 f0       	brcs	.+6      	; 0x1340 <__ultoa_invert+0x7c>
    133a:	49 5d       	subi	r20, 0xD9	; 217
    133c:	31 fd       	sbrc	r19, 1
    133e:	40 52       	subi	r20, 0x20	; 32
    1340:	41 93       	st	Z+, r20
    1342:	02 d0       	rcall	.+4      	; 0x1348 <__ultoa_invert+0x84>
    1344:	a9 f7       	brne	.-22     	; 0x1330 <__ultoa_invert+0x6c>
    1346:	ea cf       	rjmp	.-44     	; 0x131c <__ultoa_invert+0x58>
    1348:	b4 e0       	ldi	r27, 0x04	; 4
    134a:	a6 95       	lsr	r26
    134c:	97 95       	ror	r25
    134e:	87 95       	ror	r24
    1350:	77 95       	ror	r23
    1352:	67 95       	ror	r22
    1354:	ba 95       	dec	r27
    1356:	c9 f7       	brne	.-14     	; 0x134a <__ultoa_invert+0x86>
    1358:	00 97       	sbiw	r24, 0x00	; 0
    135a:	61 05       	cpc	r22, r1
    135c:	71 05       	cpc	r23, r1
    135e:	08 95       	ret
    1360:	9b 01       	movw	r18, r22
    1362:	ac 01       	movw	r20, r24
    1364:	0a 2e       	mov	r0, r26
    1366:	06 94       	lsr	r0
    1368:	57 95       	ror	r21
    136a:	47 95       	ror	r20
    136c:	37 95       	ror	r19
    136e:	27 95       	ror	r18
    1370:	ba 95       	dec	r27
    1372:	c9 f7       	brne	.-14     	; 0x1366 <__ultoa_invert+0xa2>
    1374:	62 0f       	add	r22, r18
    1376:	73 1f       	adc	r23, r19
    1378:	84 1f       	adc	r24, r20
    137a:	95 1f       	adc	r25, r21
    137c:	a0 1d       	adc	r26, r0
    137e:	08 95       	ret

00001380 <_exit>:
    1380:	f8 94       	cli

00001382 <__stop_program>:
    1382:	ff cf       	rjmp	.-2      	; 0x1382 <__stop_program>
